Archive member included because of file (symbol)

/Applications/microchip/xc32/v1.40/bin/bin/../../lib/gcc/pic32mx/4.8.3/../../../../pic32mx/lib/libsupc++.a(class_type_info.o)
                              build/default/production/_ext/1360937237/AErrorNotifier.o (vtable for __cxxabiv1::__class_type_info)
/Applications/microchip/xc32/v1.40/bin/bin/../../lib/gcc/pic32mx/4.8.3/../../../../pic32mx/lib/libsupc++.a(eh_personality.o)
                              build/default/production/main.o (__gxx_personality_sj0)
/Applications/microchip/xc32/v1.40/bin/bin/../../lib/gcc/pic32mx/4.8.3/../../../../pic32mx/lib/libsupc++.a(eh_terminate.o)
                              /Applications/microchip/xc32/v1.40/bin/bin/../../lib/gcc/pic32mx/4.8.3/../../../../pic32mx/lib/libsupc++.a(eh_personality.o) (__cxxabiv1::__terminate(void (*)()))
/Applications/microchip/xc32/v1.40/bin/bin/../../lib/gcc/pic32mx/4.8.3/../../../../pic32mx/lib/libsupc++.a(eh_throw.o)
                              /Applications/microchip/xc32/v1.40/bin/bin/../../lib/gcc/pic32mx/4.8.3/../../../../pic32mx/lib/libsupc++.a(eh_personality.o) (__cxa_throw)
/Applications/microchip/xc32/v1.40/bin/bin/../../lib/gcc/pic32mx/4.8.3/../../../../pic32mx/lib/libsupc++.a(eh_unex_handler.o)
                              /Applications/microchip/xc32/v1.40/bin/bin/../../lib/gcc/pic32mx/4.8.3/../../../../pic32mx/lib/libsupc++.a(eh_terminate.o) (__cxxabiv1::__unexpected_handler)
/Applications/microchip/xc32/v1.40/bin/bin/../../lib/gcc/pic32mx/4.8.3/../../../../pic32mx/lib/libsupc++.a(si_class_type_info.o)
                              build/default/production/_ext/1360937237/AErrorNotifier.o (vtable for __cxxabiv1::__si_class_type_info)
/Applications/microchip/xc32/v1.40/bin/bin/../../lib/gcc/pic32mx/4.8.3/../../../../pic32mx/lib/libsupc++.a(tinfo.o)
                              /Applications/microchip/xc32/v1.40/bin/bin/../../lib/gcc/pic32mx/4.8.3/../../../../pic32mx/lib/libsupc++.a(class_type_info.o) (std::type_info::~type_info())
/Applications/microchip/xc32/v1.40/bin/bin/../../lib/gcc/pic32mx/4.8.3/../../../../pic32mx/lib/libsupc++.a(pure.o)
                              build/default/production/_ext/1360937237/AErrorNotifier.o (__cxa_pure_virtual)
/Applications/microchip/xc32/v1.40/bin/bin/../../lib/gcc/pic32mx/4.8.3/../../../../pic32mx/lib/libsupc++.a(eh_alloc.o)
                              /Applications/microchip/xc32/v1.40/bin/bin/../../lib/gcc/pic32mx/4.8.3/../../../../pic32mx/lib/libsupc++.a(eh_personality.o) (__cxa_allocate_exception)
/Applications/microchip/xc32/v1.40/bin/bin/../../lib/gcc/pic32mx/4.8.3/../../../../pic32mx/lib/libsupc++.a(eh_call.o)
                              /Applications/microchip/xc32/v1.40/bin/bin/../../lib/gcc/pic32mx/4.8.3/../../../../pic32mx/lib/libsupc++.a(eh_personality.o) (__cxa_call_terminate)
/Applications/microchip/xc32/v1.40/bin/bin/../../lib/gcc/pic32mx/4.8.3/../../../../pic32mx/lib/libsupc++.a(eh_catch.o)
                              /Applications/microchip/xc32/v1.40/bin/bin/../../lib/gcc/pic32mx/4.8.3/../../../../pic32mx/lib/libsupc++.a(eh_personality.o) (__cxa_begin_catch)
/Applications/microchip/xc32/v1.40/bin/bin/../../lib/gcc/pic32mx/4.8.3/../../../../pic32mx/lib/libsupc++.a(eh_exception.o)
                              /Applications/microchip/xc32/v1.40/bin/bin/../../lib/gcc/pic32mx/4.8.3/../../../../pic32mx/lib/libsupc++.a(eh_personality.o) (std::bad_exception::~bad_exception())
/Applications/microchip/xc32/v1.40/bin/bin/../../lib/gcc/pic32mx/4.8.3/../../../../pic32mx/lib/libsupc++.a(eh_globals.o)
                              /Applications/microchip/xc32/v1.40/bin/bin/../../lib/gcc/pic32mx/4.8.3/../../../../pic32mx/lib/libsupc++.a(eh_personality.o) (__cxa_get_globals_fast)
/Applications/microchip/xc32/v1.40/bin/bin/../../lib/gcc/pic32mx/4.8.3/../../../../pic32mx/lib/libsupc++.a(eh_term_handler.o)
                              /Applications/microchip/xc32/v1.40/bin/bin/../../lib/gcc/pic32mx/4.8.3/../../../../pic32mx/lib/libsupc++.a(eh_terminate.o) (__cxxabiv1::__terminate_handler)
/Applications/microchip/xc32/v1.40/bin/bin/../../lib/gcc/pic32mx/4.8.3/../../../../pic32mx/lib/libxcpp.a(abort.o)
                              /Applications/microchip/xc32/v1.40/bin/bin/../../lib/gcc/pic32mx/4.8.3/../../../../pic32mx/lib/libsupc++.a(eh_personality.o) (abort)
/Applications/microchip/xc32/v1.40/bin/bin/../../lib/gcc/pic32mx/4.8.3/../../../../pic32mx/lib/libxcpp.a(abs.o)
                              /Applications/microchip/xc32/v1.40/bin/bin/../../lib/gcc/pic32mx/4.8.3/../../../../pic32mx/lib/libsupc++.a(eh_personality.o) (abs)
/Applications/microchip/xc32/v1.40/bin/bin/../../lib/gcc/pic32mx/4.8.3/../../../../pic32mx/lib/libxcpp.a(exit.o)
                              /Applications/microchip/xc32/v1.40/bin/bin/../../lib/gcc/pic32mx/4.8.3/../../../../pic32mx/lib/libxcpp.a(abort.o) (exit)
/Applications/microchip/xc32/v1.40/bin/bin/../../lib/gcc/pic32mx/4.8.3/../../../../pic32mx/lib/libxcpp.a(free.o)
                              build/default/production/_ext/1360937237/ACore.o (free)
/Applications/microchip/xc32/v1.40/bin/bin/../../lib/gcc/pic32mx/4.8.3/../../../../pic32mx/lib/libxcpp.a(malloc.o)
                              /Applications/microchip/xc32/v1.40/bin/bin/../../lib/gcc/pic32mx/4.8.3/../../../../pic32mx/lib/libxcpp.a(free.o) (_Aldata)
/Applications/microchip/xc32/v1.40/bin/bin/../../lib/gcc/pic32mx/4.8.3/../../../../pic32mx/lib/libxcpp.a(memcpy.o)
                              /Applications/microchip/xc32/v1.40/bin/bin/../../lib/gcc/pic32mx/4.8.3/../../../../pic32mx/lib/libxcpp.a(exit.o) (memcpy)
/Applications/microchip/xc32/v1.40/bin/bin/../../lib/gcc/pic32mx/4.8.3/../../../../pic32mx/lib/libxcpp.a(memset.o)
                              build/default/production/_ext/1360937237/ACore.o (memset)
/Applications/microchip/xc32/v1.40/bin/bin/../../lib/gcc/pic32mx/4.8.3/../../../../pic32mx/lib/libxcpp.a(raise.o)
                              /Applications/microchip/xc32/v1.40/bin/bin/../../lib/gcc/pic32mx/4.8.3/../../../../pic32mx/lib/libxcpp.a(abort.o) (raise)
/Applications/microchip/xc32/v1.40/bin/bin/../../lib/gcc/pic32mx/4.8.3/../../../../pic32mx/lib/libxcpp.a(round.o)
                              build/default/production/_ext/1360937237/AI2CDriver.o (round)
/Applications/microchip/xc32/v1.40/bin/bin/../../lib/gcc/pic32mx/4.8.3/../../../../pic32mx/lib/libxcpp.a(strcmp.o)
                              /Applications/microchip/xc32/v1.40/bin/bin/../../lib/gcc/pic32mx/4.8.3/../../../../pic32mx/lib/libsupc++.a(class_type_info.o) (strcmp)
/Applications/microchip/xc32/v1.40/bin/bin/../../lib/gcc/pic32mx/4.8.3/../../../../pic32mx/lib/libxcpp.a(strlen.o)
                              build/default/production/_ext/1360937237/AUARTDriver.o (strlen)
/Applications/microchip/xc32/v1.40/bin/bin/../../lib/gcc/pic32mx/4.8.3/../../../../pic32mx/lib/libxcpp.a(strstr.o)
                              build/default/production/_ext/1360937237/AUARTDriver.o (strstr)
/Applications/microchip/xc32/v1.40/bin/bin/../../lib/gcc/pic32mx/4.8.3/../../../../pic32mx/lib/libxcpp.a(xdint.o)
                              /Applications/microchip/xc32/v1.40/bin/bin/../../lib/gcc/pic32mx/4.8.3/../../../../pic32mx/lib/libxcpp.a(round.o) (_Dint)
/Applications/microchip/xc32/v1.40/bin/bin/../../lib/gcc/pic32mx/4.8.3/../../../../pic32mx/lib/libxcpp.a(xexit.o)
                              /Applications/microchip/xc32/v1.40/bin/bin/../../lib/gcc/pic32mx/4.8.3/../../../../pic32mx/lib/libxcpp.a(exit.o) (_Exit)
/Applications/microchip/xc32/v1.40/bin/bin/../../lib/gcc/pic32mx/4.8.3/../../../../pic32mx/lib/libxcpp.a(xgetmem.o)
                              /Applications/microchip/xc32/v1.40/bin/bin/../../lib/gcc/pic32mx/4.8.3/../../../../pic32mx/lib/libxcpp.a(malloc.o) (_Getmem)
/Applications/microchip/xc32/v1.40/bin/bin/../../lib/gcc/pic32mx/4.8.3/../../../../pic32mx/lib/libxcpp.a(strchr.o)
                              /Applications/microchip/xc32/v1.40/bin/bin/../../lib/gcc/pic32mx/4.8.3/../../../../pic32mx/lib/libxcpp.a(strstr.o) (strchr)

Optional file libmchp_peripheral.a not found

Optional file libmchp_peripheral_32MX270F256D.a not found
/Applications/microchip/xc32/v1.40/bin/bin/../../lib/gcc/pic32mx/4.8.3/libgcc.a(_divdi3.o)
                              build/default/production/_ext/1360937237/ATime.o (__divdi3)
/Applications/microchip/xc32/v1.40/bin/bin/../../lib/gcc/pic32mx/4.8.3/libgcc.a(_moddi3.o)
                              build/default/production/_ext/1360937237/ATime.o (__moddi3)
/Applications/microchip/xc32/v1.40/bin/bin/../../lib/gcc/pic32mx/4.8.3/libgcc.a(floatunsisf.o)
                              build/default/production/main.o (__floatunsisf)
/Applications/microchip/xc32/v1.40/bin/bin/../../lib/gcc/pic32mx/4.8.3/libgcc.a(unwind-sjlj.o)
                              build/default/production/main.o (_Unwind_SjLj_Register)
/Applications/microchip/xc32/v1.40/bin/bin/../../lib/gcc/pic32mx/4.8.3/../../../../pic32mx/lib/libpic32.a(sbrk.o)
                              /Applications/microchip/xc32/v1.40/bin/bin/../../lib/gcc/pic32mx/4.8.3/../../../../pic32mx/lib/libxcpp.a(xgetmem.o) (sbrk)
/Applications/microchip/xc32/v1.40/bin/bin/../../lib/gcc/pic32mx/4.8.3/../../../../pic32mx/lib/libpic32.a(default-bootstrap-exception-handler.o)
                              /Applications/microchip/xc32/v1.40/bin/bin/../../lib/gcc/pic32mx/4.8.3/../../../../pic32mx/lib/./proc/32MX270F256D/cpprt0_mips32r2.o (_bootstrap_exception_handler)
/Applications/microchip/xc32/v1.40/bin/bin/../../lib/gcc/pic32mx/4.8.3/../../../../pic32mx/lib/libpic32.a(default-on-reset.o)
                              /Applications/microchip/xc32/v1.40/bin/bin/../../lib/gcc/pic32mx/4.8.3/../../../../pic32mx/lib/./proc/32MX270F256D/cpprt0_mips32r2.o (_on_reset)
/Applications/microchip/xc32/v1.40/bin/bin/../../lib/gcc/pic32mx/4.8.3/../../../../pic32mx/lib/libpic32.a(default-on-bootstrap.o)
                              /Applications/microchip/xc32/v1.40/bin/bin/../../lib/gcc/pic32mx/4.8.3/../../../../pic32mx/lib/./proc/32MX270F256D/cpprt0_mips32r2.o (_on_bootstrap)
/Applications/microchip/xc32/v1.40/bin/bin/../../lib/gcc/pic32mx/4.8.3/../../../../pic32mx/lib/libpic32.a(default-nmi-handler.o)
                              /Applications/microchip/xc32/v1.40/bin/bin/../../lib/gcc/pic32mx/4.8.3/../../../../pic32mx/lib/./proc/32MX270F256D/cpprt0_mips32r2.o (_nmi_handler)
/Applications/microchip/xc32/v1.40/bin/bin/../../lib/gcc/pic32mx/4.8.3/../../../../pic32mx/lib/libpic32.a(_exit.o)
                              /Applications/microchip/xc32/v1.40/bin/bin/../../lib/gcc/pic32mx/4.8.3/../../../../pic32mx/lib/libxcpp.a(xexit.o) (_exit)
/Applications/microchip/xc32/v1.40/bin/bin/../../lib/gcc/pic32mx/4.8.3/../../../../pic32mx/lib/libpic32.a(kill.o)
                              /Applications/microchip/xc32/v1.40/bin/bin/../../lib/gcc/pic32mx/4.8.3/../../../../pic32mx/lib/libxcpp.a(raise.o) (kill)
/Applications/microchip/xc32/v1.40/bin/bin/../../lib/gcc/pic32mx/4.8.3/../../../../pic32mx/lib/libpic32.a(getpid.o)
                              /Applications/microchip/xc32/v1.40/bin/bin/../../lib/gcc/pic32mx/4.8.3/../../../../pic32mx/lib/libxcpp.a(raise.o) (getpid)
/Applications/microchip/xc32/v1.40/bin/bin/../../lib/gcc/pic32mx/4.8.3/../../../../pic32mx/lib/libpic32.a(errno.o)
                              /Applications/microchip/xc32/v1.40/bin/bin/../../lib/gcc/pic32mx/4.8.3/../../../../pic32mx/lib/libpic32.a(sbrk.o) (errno)
/Applications/microchip/xc32/v1.40/bin/bin/../../lib/gcc/pic32mx/4.8.3/../../../../pic32mx/lib/libpic32.a(general-exception.o)
                              /Applications/microchip/xc32/v1.40/bin/bin/../../lib/gcc/pic32mx/4.8.3/../../../../pic32mx/lib/./proc/32MX270F256D/cpprt0_mips32r2.o (_general_exception_context)
/Applications/microchip/xc32/v1.40/bin/bin/../../lib/gcc/pic32mx/4.8.3/../../../../pic32mx/lib/libpic32.a(vector1.o)
                              /Applications/microchip/xc32/v1.40/bin/bin/../../lib/gcc/pic32mx/4.8.3/../../../../pic32mx/lib/./proc/32MX270F256D/default_isr_vectors.o (__vector_dispatch_1)
/Applications/microchip/xc32/v1.40/bin/bin/../../lib/gcc/pic32mx/4.8.3/../../../../pic32mx/lib/libpic32.a(vector2.o)
                              /Applications/microchip/xc32/v1.40/bin/bin/../../lib/gcc/pic32mx/4.8.3/../../../../pic32mx/lib/./proc/32MX270F256D/default_isr_vectors.o (__vector_dispatch_2)
/Applications/microchip/xc32/v1.40/bin/bin/../../lib/gcc/pic32mx/4.8.3/../../../../pic32mx/lib/libpic32.a(vector3.o)
                              /Applications/microchip/xc32/v1.40/bin/bin/../../lib/gcc/pic32mx/4.8.3/../../../../pic32mx/lib/./proc/32MX270F256D/default_isr_vectors.o (__vector_dispatch_3)
/Applications/microchip/xc32/v1.40/bin/bin/../../lib/gcc/pic32mx/4.8.3/../../../../pic32mx/lib/libpic32.a(vector4.o)
                              /Applications/microchip/xc32/v1.40/bin/bin/../../lib/gcc/pic32mx/4.8.3/../../../../pic32mx/lib/./proc/32MX270F256D/default_isr_vectors.o (__vector_dispatch_4)
/Applications/microchip/xc32/v1.40/bin/bin/../../lib/gcc/pic32mx/4.8.3/../../../../pic32mx/lib/libpic32.a(vector5.o)
                              /Applications/microchip/xc32/v1.40/bin/bin/../../lib/gcc/pic32mx/4.8.3/../../../../pic32mx/lib/./proc/32MX270F256D/default_isr_vectors.o (__vector_dispatch_5)
/Applications/microchip/xc32/v1.40/bin/bin/../../lib/gcc/pic32mx/4.8.3/../../../../pic32mx/lib/libpic32.a(vector6.o)
                              /Applications/microchip/xc32/v1.40/bin/bin/../../lib/gcc/pic32mx/4.8.3/../../../../pic32mx/lib/./proc/32MX270F256D/default_isr_vectors.o (__vector_dispatch_6)
/Applications/microchip/xc32/v1.40/bin/bin/../../lib/gcc/pic32mx/4.8.3/../../../../pic32mx/lib/libpic32.a(vector7.o)
                              /Applications/microchip/xc32/v1.40/bin/bin/../../lib/gcc/pic32mx/4.8.3/../../../../pic32mx/lib/./proc/32MX270F256D/default_isr_vectors.o (__vector_dispatch_7)
/Applications/microchip/xc32/v1.40/bin/bin/../../lib/gcc/pic32mx/4.8.3/../../../../pic32mx/lib/libpic32.a(vector8.o)
                              /Applications/microchip/xc32/v1.40/bin/bin/../../lib/gcc/pic32mx/4.8.3/../../../../pic32mx/lib/./proc/32MX270F256D/default_isr_vectors.o (__vector_dispatch_8)
/Applications/microchip/xc32/v1.40/bin/bin/../../lib/gcc/pic32mx/4.8.3/../../../../pic32mx/lib/libpic32.a(vector9.o)
                              /Applications/microchip/xc32/v1.40/bin/bin/../../lib/gcc/pic32mx/4.8.3/../../../../pic32mx/lib/./proc/32MX270F256D/default_isr_vectors.o (__vector_dispatch_9)
/Applications/microchip/xc32/v1.40/bin/bin/../../lib/gcc/pic32mx/4.8.3/../../../../pic32mx/lib/libpic32.a(vector10.o)
                              /Applications/microchip/xc32/v1.40/bin/bin/../../lib/gcc/pic32mx/4.8.3/../../../../pic32mx/lib/./proc/32MX270F256D/default_isr_vectors.o (__vector_dispatch_10)
/Applications/microchip/xc32/v1.40/bin/bin/../../lib/gcc/pic32mx/4.8.3/../../../../pic32mx/lib/libpic32.a(vector11.o)
                              /Applications/microchip/xc32/v1.40/bin/bin/../../lib/gcc/pic32mx/4.8.3/../../../../pic32mx/lib/./proc/32MX270F256D/default_isr_vectors.o (__vector_dispatch_11)
/Applications/microchip/xc32/v1.40/bin/bin/../../lib/gcc/pic32mx/4.8.3/../../../../pic32mx/lib/libpic32.a(vector12.o)
                              /Applications/microchip/xc32/v1.40/bin/bin/../../lib/gcc/pic32mx/4.8.3/../../../../pic32mx/lib/./proc/32MX270F256D/default_isr_vectors.o (__vector_dispatch_12)
/Applications/microchip/xc32/v1.40/bin/bin/../../lib/gcc/pic32mx/4.8.3/../../../../pic32mx/lib/libpic32.a(vector13.o)
                              /Applications/microchip/xc32/v1.40/bin/bin/../../lib/gcc/pic32mx/4.8.3/../../../../pic32mx/lib/./proc/32MX270F256D/default_isr_vectors.o (__vector_dispatch_13)
/Applications/microchip/xc32/v1.40/bin/bin/../../lib/gcc/pic32mx/4.8.3/../../../../pic32mx/lib/libpic32.a(vector14.o)
                              /Applications/microchip/xc32/v1.40/bin/bin/../../lib/gcc/pic32mx/4.8.3/../../../../pic32mx/lib/./proc/32MX270F256D/default_isr_vectors.o (__vector_dispatch_14)
/Applications/microchip/xc32/v1.40/bin/bin/../../lib/gcc/pic32mx/4.8.3/../../../../pic32mx/lib/libpic32.a(vector15.o)
                              /Applications/microchip/xc32/v1.40/bin/bin/../../lib/gcc/pic32mx/4.8.3/../../../../pic32mx/lib/./proc/32MX270F256D/default_isr_vectors.o (__vector_dispatch_15)
/Applications/microchip/xc32/v1.40/bin/bin/../../lib/gcc/pic32mx/4.8.3/../../../../pic32mx/lib/libpic32.a(vector16.o)
                              /Applications/microchip/xc32/v1.40/bin/bin/../../lib/gcc/pic32mx/4.8.3/../../../../pic32mx/lib/./proc/32MX270F256D/default_isr_vectors.o (__vector_dispatch_16)
/Applications/microchip/xc32/v1.40/bin/bin/../../lib/gcc/pic32mx/4.8.3/../../../../pic32mx/lib/libpic32.a(vector17.o)
                              /Applications/microchip/xc32/v1.40/bin/bin/../../lib/gcc/pic32mx/4.8.3/../../../../pic32mx/lib/./proc/32MX270F256D/default_isr_vectors.o (__vector_dispatch_17)
/Applications/microchip/xc32/v1.40/bin/bin/../../lib/gcc/pic32mx/4.8.3/../../../../pic32mx/lib/libpic32.a(vector18.o)
                              /Applications/microchip/xc32/v1.40/bin/bin/../../lib/gcc/pic32mx/4.8.3/../../../../pic32mx/lib/./proc/32MX270F256D/default_isr_vectors.o (__vector_dispatch_18)
/Applications/microchip/xc32/v1.40/bin/bin/../../lib/gcc/pic32mx/4.8.3/../../../../pic32mx/lib/libpic32.a(vector19.o)
                              /Applications/microchip/xc32/v1.40/bin/bin/../../lib/gcc/pic32mx/4.8.3/../../../../pic32mx/lib/./proc/32MX270F256D/default_isr_vectors.o (__vector_dispatch_19)
/Applications/microchip/xc32/v1.40/bin/bin/../../lib/gcc/pic32mx/4.8.3/../../../../pic32mx/lib/libpic32.a(vector20.o)
                              /Applications/microchip/xc32/v1.40/bin/bin/../../lib/gcc/pic32mx/4.8.3/../../../../pic32mx/lib/./proc/32MX270F256D/default_isr_vectors.o (__vector_dispatch_20)
/Applications/microchip/xc32/v1.40/bin/bin/../../lib/gcc/pic32mx/4.8.3/../../../../pic32mx/lib/libpic32.a(vector21.o)
                              /Applications/microchip/xc32/v1.40/bin/bin/../../lib/gcc/pic32mx/4.8.3/../../../../pic32mx/lib/./proc/32MX270F256D/default_isr_vectors.o (__vector_dispatch_21)
/Applications/microchip/xc32/v1.40/bin/bin/../../lib/gcc/pic32mx/4.8.3/../../../../pic32mx/lib/libpic32.a(vector22.o)
                              /Applications/microchip/xc32/v1.40/bin/bin/../../lib/gcc/pic32mx/4.8.3/../../../../pic32mx/lib/./proc/32MX270F256D/default_isr_vectors.o (__vector_dispatch_22)
/Applications/microchip/xc32/v1.40/bin/bin/../../lib/gcc/pic32mx/4.8.3/../../../../pic32mx/lib/libpic32.a(vector23.o)
                              /Applications/microchip/xc32/v1.40/bin/bin/../../lib/gcc/pic32mx/4.8.3/../../../../pic32mx/lib/./proc/32MX270F256D/default_isr_vectors.o (__vector_dispatch_23)
/Applications/microchip/xc32/v1.40/bin/bin/../../lib/gcc/pic32mx/4.8.3/../../../../pic32mx/lib/libpic32.a(vector24.o)
                              /Applications/microchip/xc32/v1.40/bin/bin/../../lib/gcc/pic32mx/4.8.3/../../../../pic32mx/lib/./proc/32MX270F256D/default_isr_vectors.o (__vector_dispatch_24)
/Applications/microchip/xc32/v1.40/bin/bin/../../lib/gcc/pic32mx/4.8.3/../../../../pic32mx/lib/libpic32.a(vector25.o)
                              /Applications/microchip/xc32/v1.40/bin/bin/../../lib/gcc/pic32mx/4.8.3/../../../../pic32mx/lib/./proc/32MX270F256D/default_isr_vectors.o (__vector_dispatch_25)
/Applications/microchip/xc32/v1.40/bin/bin/../../lib/gcc/pic32mx/4.8.3/../../../../pic32mx/lib/libpic32.a(vector26.o)
                              /Applications/microchip/xc32/v1.40/bin/bin/../../lib/gcc/pic32mx/4.8.3/../../../../pic32mx/lib/./proc/32MX270F256D/default_isr_vectors.o (__vector_dispatch_26)
/Applications/microchip/xc32/v1.40/bin/bin/../../lib/gcc/pic32mx/4.8.3/../../../../pic32mx/lib/libpic32.a(vector27.o)
                              /Applications/microchip/xc32/v1.40/bin/bin/../../lib/gcc/pic32mx/4.8.3/../../../../pic32mx/lib/./proc/32MX270F256D/default_isr_vectors.o (__vector_dispatch_27)
/Applications/microchip/xc32/v1.40/bin/bin/../../lib/gcc/pic32mx/4.8.3/../../../../pic32mx/lib/libpic32.a(vector28.o)
                              /Applications/microchip/xc32/v1.40/bin/bin/../../lib/gcc/pic32mx/4.8.3/../../../../pic32mx/lib/./proc/32MX270F256D/default_isr_vectors.o (__vector_dispatch_28)
/Applications/microchip/xc32/v1.40/bin/bin/../../lib/gcc/pic32mx/4.8.3/../../../../pic32mx/lib/libpic32.a(vector29.o)
                              /Applications/microchip/xc32/v1.40/bin/bin/../../lib/gcc/pic32mx/4.8.3/../../../../pic32mx/lib/./proc/32MX270F256D/default_isr_vectors.o (__vector_dispatch_29)
/Applications/microchip/xc32/v1.40/bin/bin/../../lib/gcc/pic32mx/4.8.3/../../../../pic32mx/lib/libpic32.a(vector30.o)
                              /Applications/microchip/xc32/v1.40/bin/bin/../../lib/gcc/pic32mx/4.8.3/../../../../pic32mx/lib/./proc/32MX270F256D/default_isr_vectors.o (__vector_dispatch_30)
/Applications/microchip/xc32/v1.40/bin/bin/../../lib/gcc/pic32mx/4.8.3/../../../../pic32mx/lib/libpic32.a(vector31.o)
                              /Applications/microchip/xc32/v1.40/bin/bin/../../lib/gcc/pic32mx/4.8.3/../../../../pic32mx/lib/./proc/32MX270F256D/default_isr_vectors.o (__vector_dispatch_31)
/Applications/microchip/xc32/v1.40/bin/bin/../../lib/gcc/pic32mx/4.8.3/../../../../pic32mx/lib/libpic32.a(vector33.o)
                              /Applications/microchip/xc32/v1.40/bin/bin/../../lib/gcc/pic32mx/4.8.3/../../../../pic32mx/lib/./proc/32MX270F256D/default_isr_vectors.o (__vector_dispatch_33)
/Applications/microchip/xc32/v1.40/bin/bin/../../lib/gcc/pic32mx/4.8.3/../../../../pic32mx/lib/libpic32.a(vector34.o)
                              /Applications/microchip/xc32/v1.40/bin/bin/../../lib/gcc/pic32mx/4.8.3/../../../../pic32mx/lib/./proc/32MX270F256D/default_isr_vectors.o (__vector_dispatch_34)
/Applications/microchip/xc32/v1.40/bin/bin/../../lib/gcc/pic32mx/4.8.3/../../../../pic32mx/lib/libpic32.a(vector35.o)
                              /Applications/microchip/xc32/v1.40/bin/bin/../../lib/gcc/pic32mx/4.8.3/../../../../pic32mx/lib/./proc/32MX270F256D/default_isr_vectors.o (__vector_dispatch_35)
/Applications/microchip/xc32/v1.40/bin/bin/../../lib/gcc/pic32mx/4.8.3/../../../../pic32mx/lib/libpic32.a(vector36.o)
                              /Applications/microchip/xc32/v1.40/bin/bin/../../lib/gcc/pic32mx/4.8.3/../../../../pic32mx/lib/./proc/32MX270F256D/default_isr_vectors.o (__vector_dispatch_36)
/Applications/microchip/xc32/v1.40/bin/bin/../../lib/gcc/pic32mx/4.8.3/../../../../pic32mx/lib/libpic32.a(vector37.o)
                              /Applications/microchip/xc32/v1.40/bin/bin/../../lib/gcc/pic32mx/4.8.3/../../../../pic32mx/lib/./proc/32MX270F256D/default_isr_vectors.o (__vector_dispatch_37)
/Applications/microchip/xc32/v1.40/bin/bin/../../lib/gcc/pic32mx/4.8.3/../../../../pic32mx/lib/libpic32.a(vector38.o)
                              /Applications/microchip/xc32/v1.40/bin/bin/../../lib/gcc/pic32mx/4.8.3/../../../../pic32mx/lib/./proc/32MX270F256D/default_isr_vectors.o (__vector_dispatch_38)
/Applications/microchip/xc32/v1.40/bin/bin/../../lib/gcc/pic32mx/4.8.3/../../../../pic32mx/lib/libpic32.a(vector39.o)
                              /Applications/microchip/xc32/v1.40/bin/bin/../../lib/gcc/pic32mx/4.8.3/../../../../pic32mx/lib/./proc/32MX270F256D/default_isr_vectors.o (__vector_dispatch_39)
/Applications/microchip/xc32/v1.40/bin/bin/../../lib/gcc/pic32mx/4.8.3/../../../../pic32mx/lib/libpic32.a(vector40.o)
                              /Applications/microchip/xc32/v1.40/bin/bin/../../lib/gcc/pic32mx/4.8.3/../../../../pic32mx/lib/./proc/32MX270F256D/default_isr_vectors.o (__vector_dispatch_40)
/Applications/microchip/xc32/v1.40/bin/bin/../../lib/gcc/pic32mx/4.8.3/../../../../pic32mx/lib/libpic32.a(vector41.o)
                              /Applications/microchip/xc32/v1.40/bin/bin/../../lib/gcc/pic32mx/4.8.3/../../../../pic32mx/lib/./proc/32MX270F256D/default_isr_vectors.o (__vector_dispatch_41)
/Applications/microchip/xc32/v1.40/bin/bin/../../lib/gcc/pic32mx/4.8.3/../../../../pic32mx/lib/libpic32.a(vector42.o)
                              /Applications/microchip/xc32/v1.40/bin/bin/../../lib/gcc/pic32mx/4.8.3/../../../../pic32mx/lib/./proc/32MX270F256D/default_isr_vectors.o (__vector_dispatch_42)
/Applications/microchip/xc32/v1.40/bin/bin/../../lib/gcc/pic32mx/4.8.3/../../../../pic32mx/lib/libpic32.a(vector43.o)
                              /Applications/microchip/xc32/v1.40/bin/bin/../../lib/gcc/pic32mx/4.8.3/../../../../pic32mx/lib/./proc/32MX270F256D/default_isr_vectors.o (__vector_dispatch_43)
/Applications/microchip/xc32/v1.40/bin/bin/../../lib/gcc/pic32mx/4.8.3/../../../../pic32mx/lib/libpic32.a(default-general-exception-handler.o)
                              /Applications/microchip/xc32/v1.40/bin/bin/../../lib/gcc/pic32mx/4.8.3/../../../../pic32mx/lib/libpic32.a(general-exception.o) (_general_exception_handler)
/Applications/microchip/xc32/v1.40/bin/bin/../../lib/gcc/pic32mx/4.8.3/../../../../pic32mx/lib/libpic32.a(defaultinterrupt.o)
                              /Applications/microchip/xc32/v1.40/bin/bin/../../lib/gcc/pic32mx/4.8.3/../../../../pic32mx/lib/libpic32.a(vector1.o) (_DefaultInterrupt)
/Applications/microchip/xc32/v1.40/bin/bin/../../lib/gcc/pic32mx/4.8.3/../../../../pic32mx/lib/libm.a(fp32div.o)
                              build/default/production/_ext/1360937237/ACore.o (fpdiv)
/Applications/microchip/xc32/v1.40/bin/bin/../../lib/gcc/pic32mx/4.8.3/../../../../pic32mx/lib/libm.a(fp32mul.o)
                              build/default/production/_ext/1360937237/AI2CDriver.o (fpmul)
/Applications/microchip/xc32/v1.40/bin/bin/../../lib/gcc/pic32mx/4.8.3/../../../../pic32mx/lib/libm.a(fp32subadd.o)
                              build/default/production/_ext/1360937237/AI2CDriver.o (fpsub)
/Applications/microchip/xc32/v1.40/bin/bin/../../lib/gcc/pic32mx/4.8.3/../../../../pic32mx/lib/libm.a(fpcmp.o)
                              build/default/production/_ext/1360937237/ACore.o (fpcmp)
/Applications/microchip/xc32/v1.40/bin/bin/../../lib/gcc/pic32mx/4.8.3/../../../../pic32mx/lib/libm.a(fptoul.o)
                              build/default/production/_ext/1360937237/ACore.o (fptoui)
/Applications/microchip/xc32/v1.40/bin/bin/../../lib/gcc/pic32mx/4.8.3/../../../../pic32mx/lib/libm.a(sitofp.o)
                              build/default/production/_ext/1360937237/AString.o (sitofp)

Microchip PIC32 Memory-Usage Report

kseg0 Program-Memory Usage
section                    address  length [bytes]      (dec)  Description
-------                 ----------  -------------------------  -----------
.text                   0x9d000000         0x27c0       10176  App's exec code 
.init                   0x9d0027c0           0x24          36   
.fini                   0x9d0027e4           0x1c          28   
.ctors                  0x9d002800           0x1c          28   
.dtors                  0x9d00281c            0x8           8   
.rodata                 0x9d002824          0x470        1136  Read-only const 
.text                   0x9d002c94        0x11fd8       73688  App's exec code 
.dinit                  0x9d014c6c          0x490        1168   
.text                   0x9d0150fc          0x3b0         944  App's exec code 
.text.fpsubadd          0x9d0154ac          0x278         632   
.text.__cxa_call_unexpe 0x9d015724          0x240         576   
.text                   0x9d015964          0x234         564  App's exec code 
.text.fp32div           0x9d015b98          0x230         560   
.text                   0x9d015dc8          0x228         552  App's exec code 
.text.malloc            0x9d015ff0          0x224         548   
.text.fp32mul           0x9d016214          0x1bc         444   
.text._sbrk_init        0x9d0163d0          0x194         404   
.text._ZL28check_compac 0x9d016564          0x190         400   
.text._ZL28read_encoded 0x9d0166f4          0x180         384   
.rodata                 0x9d016874          0x168         360  Read-only const 
.text._ZNK10__cxxabiv12 0x9d0169dc          0x168         360   
.text._Dint             0x9d016b44          0x15c         348   
.text._ZL17parse_lsda_h 0x9d016ca0          0x12c         300   
.text._Atrealloc        0x9d016dcc          0x108         264   
.rodata                 0x9d016ed4           0xfc         252  Read-only const 
.text                   0x9d016fd0          0x1d4         468  App's exec code 
.text.free              0x9d0171a4           0xe8         232   
.text.general_exception 0x9d01728c           0xdc         220   
.text._ZNK10__cxxabiv11 0x9d017368           0xd4         212   
.text._ZNK10__cxxabiv11 0x9d01743c           0xcc         204   
.text.__cxa_end_catch   0x9d017508           0xcc         204   
.text.exit              0x9d0175d4           0xc8         200   
.text._sbrk             0x9d01769c           0xc8         200   
.text.__cxa_begin_catch 0x9d017764           0xc4         196   
.text._ZL20check_except 0x9d017828           0xac         172   
.text._ZL21size_of_enco 0x9d0178d4           0xa8         168   
.text._ZNK10__cxxabiv12 0x9d01797c           0xa0         160   
.text.__cxa_allocate_ex 0x9d017a1c           0xa0         160   
.text.fpcmp             0x9d017abc           0x9c         156   
.text._ZL21base_of_enco 0x9d017b58           0x94         148   
.text.__cxa_throw       0x9d017bec           0x94         148   
.text.__cxa_rethrow     0x9d017c80           0x8c         140   
.text.__cxa_allocate_de 0x9d017d0c           0x8c         140   
.text._ZNK10__cxxabiv11 0x9d017d98           0x84         132   
.text._ZL16get_adjusted 0x9d017e1c           0x80         128   
.text.round             0x9d017e9c           0x80         128   
.text._ZNK10__cxxabiv12 0x9d017f1c           0x7c         124   
.text.atexit            0x9d017f98           0x7c         124   
.text.fptoul            0x9d018014           0x7c         124   
.text._ZL23__gxx_except 0x9d018090           0x78         120   
.text._ZN10__cxxabiv111 0x9d018108           0x74         116   
.text.strstr            0x9d01817c           0x6c         108   
.text._ZNK10__cxxabiv11 0x9d0181e8           0x68         104   
.text.__cxa_call_termin 0x9d018250           0x64         100   
.rodata                 0x9d0182b4           0x60          96  Read-only const 
.text._ZL15get_ttype_en 0x9d018314           0x60          96   
.text.sitofp            0x9d018374           0x60          96   
.text                   0x9d0183d4           0x58          88  App's exec code 
.text.main_entry        0x9d01842c           0x54          84   
.rodata                 0x9d018480           0x54          84  Read-only const 
.text._ZL12read_sleb128 0x9d0184d4           0x50          80   
.text._ZNKSt9type_info1 0x9d018524           0x50          80   
.text.sbrk              0x9d018574           0x50          80   
.rodata                 0x9d0185c4           0x98         152  Read-only const 
.text.__cxa_free_except 0x9d01865c           0x4c          76   
.text.__cxa_free_depend 0x9d0186a8           0x4c          76   
.text                   0x9d0186f4           0x4c          76  App's exec code 
.rodata                 0x9d018740           0x90         144  Read-only const 
.text._bootstrap_except 0x9d0187d0           0x48          72   
.text._general_exceptio 0x9d018818           0x48          72   
.vector_default         0x9d018860           0x48          72   
.text.strcmp            0x9d0188a8           0x44          68   
.text                   0x9d0188ec           0x44          68  App's exec code 
.rodata                 0x9d018930          0x200         512  Read-only const 
.text._ZN10__cxxabiv117 0x9d018b30           0x34          52   
.text._ZN10__cxxabiv120 0x9d018b64           0x34          52   
.text._Getmem           0x9d018b98           0x34          52   
.text.strchr            0x9d018bcc           0x34          52   
.text.raise             0x9d018c00           0x30          48   
.text.strlen            0x9d018c30           0x30          48   
.rodata                 0x9d018c60           0x30          48  Read-only const 
.text.memcpy            0x9d018c90           0x2c          44   
.text.memset            0x9d018cbc           0x2c          44   
.text._stub_sbd_memlayo 0x9d018ce8           0x2c          44   
.text._ZSt18uncaught_ex 0x9d018d14           0x24          36   
.rodata                 0x9d018d38           0x24          36  Read-only const 
.text._ZNK10__cxxabiv11 0x9d018d5c           0x1c          28   
.text._ZN10__cxxabiv112 0x9d018d78           0x18          24   
.text.abort             0x9d018d90           0x18          24   
.text                   0x9d018da8           0x18          24  App's exec code 
.text._ZN10__cxxabiv117 0x9d018dc0           0x10          16   
.text._ZSt9terminatev   0x9d018dd0           0x10          16   
.text._ZSt10unexpectedv 0x9d018de0           0x10          16   
.text._ZN10__cxxabiv120 0x9d018df0           0x10          16   
.text._ZNSt9type_infoD2 0x9d018e00           0x10          16   
.text._ZNSt9type_infoD0 0x9d018e10           0x10          16   
.text.__cxa_pure_virtua 0x9d018e20           0x10          16   
.text.__cxa_deleted_vir 0x9d018e30           0x10          16   
.text._ZNSt9exceptionD2 0x9d018e40           0x10          16   
.text._ZNSt9exceptionD0 0x9d018e50           0x10          16   
.text._ZNSt13bad_except 0x9d018e60           0x10          16   
.text._ZNSt13bad_except 0x9d018e70           0x10          16   
.text._ZN10__cxxabiv115 0x9d018e80           0x10          16   
.text._ZN10__cxxabiv115 0x9d018e90           0x10          16   
.text._ZN10__cxxabiv119 0x9d018ea0           0x10          16   
.text._ZN10__cxxabiv119 0x9d018eb0           0x10          16   
.text.abs               0x9d018ec0           0x10          16   
.text._Exit             0x9d018ed0           0x10          16   
.text._ZSt13set_termina 0x9d018ee0            0xc          12   
.text._ZSt14set_unexpec 0x9d018eec            0xc          12   
.text._ZNKSt9exception4 0x9d018ef8            0xc          12   
.text._ZNKSt13bad_excep 0x9d018f04            0xc          12   
.rodata._ZN10__cxxabiv1 0x9d018f10            0x8           8   
.rodata._ZN10__cxxabiv1 0x9d018f18            0x8           8   
.rodata._ZN10__cxxabiv1 0x9d018f20            0x8           8   
.rodata._ZN10__cxxabiv1 0x9d018f28            0x8           8   
.rodata._ZN10__cxxabiv1 0x9d018f30            0x8           8   
.rodata._ZN10__cxxabiv1 0x9d018f38            0x8           8   
.rodata._ZN10__cxxabiv1 0x9d018f40            0x8           8   
.rodata._ZN10__cxxabiv1 0x9d018f48            0x8           8   
.text._ZNKSt9type_info1 0x9d018f50            0x8           8   
.text._ZNKSt9type_info1 0x9d018f58            0x8           8   
.text._ZNKSt9type_info1 0x9d018f60            0x8           8   
.rodata._ZN10__cxxabiv1 0x9d018f68            0x8           8   
.rodata._ZN10__cxxabiv1 0x9d018f70            0x8           8   
.rodata._ZN10__cxxabiv1 0x9d018f78            0x8           8   
.rodata._ZN10__cxxabiv1 0x9d018f80            0x8           8   
.rodata._ZN10__cxxabiv1 0x9d018f88            0x8           8   
.rodata._ZN10__cxxabiv1 0x9d018f90            0x8           8   
.text.__cxa_get_excepti 0x9d018f98            0x8           8   
.rodata._ZN10__cxxabiv1 0x9d018fa0            0x8           8   
.rodata._ZN10__cxxabiv1 0x9d018fa8            0x8           8   
.text.__cxa_get_globals 0x9d018fb0            0x8           8   
.text.__cxa_get_globals 0x9d018fb8            0x8           8   
.rodata._ZN10__cxxabiv1 0x9d018fc0            0x8           8   
.rodata._ZN10__cxxabiv1 0x9d018fc8            0x8           8   
.rodata._ZN10__cxxabiv1 0x9d018fd0            0x8           8   
.rodata._ZN10__cxxabiv1 0x9d018fd8            0x8           8   
.text.getpagesize       0x9d018fe0            0x8           8   
.text._on_reset         0x9d018fe8            0x8           8   
.text._on_bootstrap     0x9d018ff0            0x8           8   
.text._exit             0x9d018ff8            0x8           8   
.text.kill              0x9d019000            0x8           8   
.text.getpid            0x9d019008            0x8           8   
.rodata._ZN10__cxxabiv1 0x9d019010            0x4           4   
.rodata                 0x9d019014            0x4           4  Read-only const 
      Total kseg0_program_mem used  :     0x19018      102424  39.7% of 0x3f000

kseg0 Boot-Memory Usage
section                    address  length [bytes]      (dec)  Description
-------                 ----------  -------------------------  -----------
         Total kseg0_boot_mem used  :           0           0  

Exception-Memory Usage 
section                    address  length [bytes]      (dec)  Description
-------                 ----------  -------------------------  -----------
.app_excpt              0x9d03f180           0x10          16  General-Exception 
.vector_0               0x9d03f200            0x8           8  Interrupt Vector 0 
.vector_1               0x9d03f220            0x8           8  Interrupt Vector 1 
.vector_2               0x9d03f240            0x8           8  Interrupt Vector 2 
.vector_3               0x9d03f260            0x8           8  Interrupt Vector 3 
.vector_4               0x9d03f280            0x8           8  Interrupt Vector 4 
.vector_5               0x9d03f2a0            0x8           8  Interrupt Vector 5 
.vector_6               0x9d03f2c0            0x8           8  Interrupt Vector 6 
.vector_7               0x9d03f2e0            0x8           8  Interrupt Vector 7 
.vector_8               0x9d03f300            0x8           8  Interrupt Vector 8 
.vector_9               0x9d03f320            0x8           8  Interrupt Vector 9 
.vector_10              0x9d03f340            0x8           8  Interrupt Vector 10 
.vector_11              0x9d03f360            0x8           8  Interrupt Vector 11 
.vector_12              0x9d03f380            0x8           8  Interrupt Vector 12 
.vector_13              0x9d03f3a0            0x8           8  Interrupt Vector 13 
.vector_14              0x9d03f3c0            0x8           8  Interrupt Vector 14 
.vector_15              0x9d03f3e0            0x8           8  Interrupt Vector 15 
.vector_16              0x9d03f400            0x8           8  Interrupt Vector 16 
.vector_17              0x9d03f420            0x8           8  Interrupt Vector 17 
.vector_18              0x9d03f440            0x8           8  Interrupt Vector 18 
.vector_19              0x9d03f460            0x8           8  Interrupt Vector 19 
.vector_20              0x9d03f480            0x8           8  Interrupt Vector 20 
.vector_21              0x9d03f4a0            0x8           8  Interrupt Vector 21 
.vector_22              0x9d03f4c0            0x8           8  Interrupt Vector 22 
.vector_23              0x9d03f4e0            0x8           8  Interrupt Vector 23 
.vector_24              0x9d03f500            0x8           8  Interrupt Vector 24 
.vector_25              0x9d03f520            0x8           8  Interrupt Vector 25 
.vector_26              0x9d03f540            0x8           8  Interrupt Vector 26 
.vector_27              0x9d03f560            0x8           8  Interrupt Vector 27 
.vector_28              0x9d03f580            0x8           8  Interrupt Vector 28 
.vector_29              0x9d03f5a0            0x8           8  Interrupt Vector 29 
.vector_30              0x9d03f5c0            0x8           8  Interrupt Vector 30 
.vector_31              0x9d03f5e0            0x8           8  Interrupt Vector 31 
.vector_32              0x9d03f600            0x8           8  Interrupt Vector 32 
.vector_33              0x9d03f620            0x8           8  Interrupt Vector 33 
.vector_34              0x9d03f640            0x8           8  Interrupt Vector 34 
.vector_35              0x9d03f660            0x8           8  Interrupt Vector 35 
.vector_36              0x9d03f680            0x8           8  Interrupt Vector 36 
.vector_37              0x9d03f6a0            0x8           8  Interrupt Vector 37 
.vector_38              0x9d03f6c0            0x8           8  Interrupt Vector 38 
.vector_39              0x9d03f6e0            0x8           8  Interrupt Vector 39 
.vector_40              0x9d03f700            0x8           8  Interrupt Vector 40 
.vector_41              0x9d03f720            0x8           8  Interrupt Vector 41 
.vector_42              0x9d03f740            0x8           8  Interrupt Vector 42 
.vector_43              0x9d03f760            0x8           8  Interrupt Vector 43 
          Total exception_mem used  :       0x170         368  9.0% of 0x1000

kseg1 Boot-Memory Usage
section                    address  length [bytes]      (dec)  Description
-------                 ----------  -------------------------  -----------
.reset                  0xbfc00000          0x1d0         464  Reset handler 
.bev_excpt              0xbfc00380           0x10          16  BEV-Exception 
         Total kseg1_boot_mem used  :       0x1e0         480  41.1% of 0x490
        --------------------------------------------------------------------------
         Total Program Memory used  :     0x19368      103272  39.2% of 0x40490
        --------------------------------------------------------------------------


kseg1 Data-Memory Usage
section                    address  length [bytes]      (dec)  Description
-------                 ----------  -------------------------  -----------
.jcr                    0xa0000000            0x4           4   
.eh_frame               0xa0000004            0x4           4   
.gcc_except_table       0xa0000008          0x140         320   
.data                   0xa0000148            0x8           8  Initialized data 
.sdata                  0xa0000150           0x30          48  Small init data 
.sbss                   0xa0000180           0x60          96  Small uninit data 
.bss                    0xa00001e0          0x8a8        2216  Uninitialized data 
.bss._ZL16emergency_buf 0xa0000a88          0x800        2048   
.bss                    0xa0001288          0x144         324  Uninitialized data 
.data                   0xa00013cc            0x4           4  Initialized data 
.bss._ZL17dependents_bu 0xa00013d0          0x100         256   
.bss                    0xa00014d0           0xf0         240  Uninitialized data 
.data                   0xa00015c0           0x8c         140  Initialized data 
.bss                    0xa000164c            0x8           8  Uninitialized data 
.data                   0xa0001654            0x4           4  Initialized data 
.bss                    0xa0001658            0x8           8  Uninitialized data 
.data                   0xa0001660            0x4           4  Initialized data 
         Total kseg1_data_mem used  :      0x1664        5732  8.7% of 0x10000
        --------------------------------------------------------------------------
            Total Data Memory used  :      0x1664        5732  8.7% of 0x10000
        --------------------------------------------------------------------------


Dynamic Data-Memory Reservation
section                    address  length [bytes]      (dec)  Description
-------                 ----------  -------------------------  -----------
heap                    0xa0001668         0x4008       16392  Reserved for heap 
stack                   0xa0005688         0xa968       43368  Reserved for stack 

        --------------------------------------------------------------------------

Discarded input sections

 .reginfo       0x00000000       0x18 /Applications/microchip/xc32/v1.40/bin/bin/../../lib/gcc/pic32mx/4.8.3/crti.o
 .reginfo       0x00000000       0x18 /Applications/microchip/xc32/v1.40/bin/bin/../../lib/gcc/pic32mx/4.8.3/crtbegin.o
 .reginfo       0x00000000       0x18 build/default/production/main.o
 .reginfo       0x00000000       0x18 build/default/production/_ext/1360937237/A24LC512.o
 .reginfo       0x00000000       0x18 build/default/production/_ext/1360937237/AConfigurationBits.o
 .reginfo       0x00000000       0x18 build/default/production/_ext/1360937237/ACore.o
 .reginfo       0x00000000       0x18 build/default/production/_ext/1360937237/ADateTime.o
 .reginfo       0x00000000       0x18 build/default/production/_ext/1360937237/AErrorNotifier.o
 .reginfo       0x00000000       0x18 build/default/production/_ext/1360937237/AI2CDriver.o
 .reginfo       0x00000000       0x18 build/default/production/_ext/1360937237/AInterruptSource.o
 .gnu.linkonce.t._ZNV10AFramework9ARegTypes7ACSIReg4isHiEj
                0x00000000       0x44 build/default/production/_ext/1360937237/AInterruptSource.o
 .reginfo       0x00000000       0x18 build/default/production/_ext/1360937237/ALcd.o
 .gnu.linkonce.d.DW.ref.__gxx_personality_sj0
                0x00000000        0x4 build/default/production/_ext/1360937237/ALcd.o
 .reginfo       0x00000000       0x18 build/default/production/_ext/1360937237/APCF8563.o
 .reginfo       0x00000000       0x18 build/default/production/_ext/1360937237/APorts.o
 .gnu.linkonce.t._ZNV10AFramework9ARegTypes7ACSIReg4isHiEj
                0x00000000       0x44 build/default/production/_ext/1360937237/APorts.o
 .reginfo       0x00000000       0x18 build/default/production/_ext/1360937237/AString.o
 .gnu.linkonce.d.DW.ref.__gxx_personality_sj0
                0x00000000        0x4 build/default/production/_ext/1360937237/AString.o
 .reginfo       0x00000000       0x18 build/default/production/_ext/1360937237/ATime.o
 .reginfo       0x00000000       0x18 build/default/production/_ext/1360937237/ATimers.o
 .reginfo       0x00000000       0x18 build/default/production/_ext/1360937237/AUARTDriver.o
 .reginfo       0x00000000       0x18 build/default/production/_ext/1360937237/Ap32mx270f256d.o
 .reginfo       0x00000000       0x18 build/default/production/_ext/1360937237/AESP8266.o
 .gnu.linkonce.d.DW.ref.__gxx_personality_sj0
                0x00000000        0x4 build/default/production/_ext/1360937237/AESP8266.o
 .reginfo       0x00000000       0x18 build/default/production/_ext/1360937237/MTemp.o
 .gnu.linkonce.d.DW.ref.__gxx_personality_sj0
                0x00000000        0x4 build/default/production/_ext/1360937237/MTemp.o
 .reginfo       0x00000000       0x18 build/default/production/_ext/1360937237/AXbee.o
 .reginfo       0x00000000       0x18 /Applications/microchip/xc32/v1.40/bin/bin/../../lib/gcc/pic32mx/4.8.3/../../../../pic32mx/lib/libsupc++.a(class_type_info.o)
 .reginfo       0x00000000       0x18 /Applications/microchip/xc32/v1.40/bin/bin/../../lib/gcc/pic32mx/4.8.3/../../../../pic32mx/lib/libsupc++.a(eh_personality.o)
 .reginfo       0x00000000       0x18 /Applications/microchip/xc32/v1.40/bin/bin/../../lib/gcc/pic32mx/4.8.3/../../../../pic32mx/lib/libsupc++.a(eh_terminate.o)
 .gnu.linkonce.d.DW.ref.__gxx_personality_sj0.DW.ref.__gxx_personality_sj0
                0x00000000        0x4 /Applications/microchip/xc32/v1.40/bin/bin/../../lib/gcc/pic32mx/4.8.3/../../../../pic32mx/lib/libsupc++.a(eh_terminate.o)
 .reginfo       0x00000000       0x18 /Applications/microchip/xc32/v1.40/bin/bin/../../lib/gcc/pic32mx/4.8.3/../../../../pic32mx/lib/libsupc++.a(eh_throw.o)
 .reginfo       0x00000000       0x18 /Applications/microchip/xc32/v1.40/bin/bin/../../lib/gcc/pic32mx/4.8.3/../../../../pic32mx/lib/libsupc++.a(eh_unex_handler.o)
 .reginfo       0x00000000       0x18 /Applications/microchip/xc32/v1.40/bin/bin/../../lib/gcc/pic32mx/4.8.3/../../../../pic32mx/lib/libsupc++.a(si_class_type_info.o)
 .reginfo       0x00000000       0x18 /Applications/microchip/xc32/v1.40/bin/bin/../../lib/gcc/pic32mx/4.8.3/../../../../pic32mx/lib/libsupc++.a(tinfo.o)
 .reginfo       0x00000000       0x18 /Applications/microchip/xc32/v1.40/bin/bin/../../lib/gcc/pic32mx/4.8.3/../../../../pic32mx/lib/libsupc++.a(pure.o)
 .reginfo       0x00000000       0x18 /Applications/microchip/xc32/v1.40/bin/bin/../../lib/gcc/pic32mx/4.8.3/../../../../pic32mx/lib/libsupc++.a(eh_alloc.o)
 .reginfo       0x00000000       0x18 /Applications/microchip/xc32/v1.40/bin/bin/../../lib/gcc/pic32mx/4.8.3/../../../../pic32mx/lib/libsupc++.a(eh_call.o)
 .reginfo       0x00000000       0x18 /Applications/microchip/xc32/v1.40/bin/bin/../../lib/gcc/pic32mx/4.8.3/../../../../pic32mx/lib/libsupc++.a(eh_catch.o)
 .reginfo       0x00000000       0x18 /Applications/microchip/xc32/v1.40/bin/bin/../../lib/gcc/pic32mx/4.8.3/../../../../pic32mx/lib/libsupc++.a(eh_exception.o)
 .reginfo       0x00000000       0x18 /Applications/microchip/xc32/v1.40/bin/bin/../../lib/gcc/pic32mx/4.8.3/../../../../pic32mx/lib/libsupc++.a(eh_globals.o)
 .reginfo       0x00000000       0x18 /Applications/microchip/xc32/v1.40/bin/bin/../../lib/gcc/pic32mx/4.8.3/../../../../pic32mx/lib/libsupc++.a(eh_term_handler.o)
 .reginfo       0x00000000       0x18 /Applications/microchip/xc32/v1.40/bin/bin/../../lib/gcc/pic32mx/4.8.3/../../../../pic32mx/lib/libxcpp.a(abort.o)
 .reginfo       0x00000000       0x18 /Applications/microchip/xc32/v1.40/bin/bin/../../lib/gcc/pic32mx/4.8.3/../../../../pic32mx/lib/libxcpp.a(abs.o)
 .reginfo       0x00000000       0x18 /Applications/microchip/xc32/v1.40/bin/bin/../../lib/gcc/pic32mx/4.8.3/../../../../pic32mx/lib/libxcpp.a(exit.o)
 .reginfo       0x00000000       0x18 /Applications/microchip/xc32/v1.40/bin/bin/../../lib/gcc/pic32mx/4.8.3/../../../../pic32mx/lib/libxcpp.a(free.o)
 .reginfo       0x00000000       0x18 /Applications/microchip/xc32/v1.40/bin/bin/../../lib/gcc/pic32mx/4.8.3/../../../../pic32mx/lib/libxcpp.a(malloc.o)
 .reginfo       0x00000000       0x18 /Applications/microchip/xc32/v1.40/bin/bin/../../lib/gcc/pic32mx/4.8.3/../../../../pic32mx/lib/libxcpp.a(memcpy.o)
 .reginfo       0x00000000       0x18 /Applications/microchip/xc32/v1.40/bin/bin/../../lib/gcc/pic32mx/4.8.3/../../../../pic32mx/lib/libxcpp.a(memset.o)
 .reginfo       0x00000000       0x18 /Applications/microchip/xc32/v1.40/bin/bin/../../lib/gcc/pic32mx/4.8.3/../../../../pic32mx/lib/libxcpp.a(raise.o)
 .reginfo       0x00000000       0x18 /Applications/microchip/xc32/v1.40/bin/bin/../../lib/gcc/pic32mx/4.8.3/../../../../pic32mx/lib/libxcpp.a(round.o)
 .reginfo       0x00000000       0x18 /Applications/microchip/xc32/v1.40/bin/bin/../../lib/gcc/pic32mx/4.8.3/../../../../pic32mx/lib/libxcpp.a(strcmp.o)
 .reginfo       0x00000000       0x18 /Applications/microchip/xc32/v1.40/bin/bin/../../lib/gcc/pic32mx/4.8.3/../../../../pic32mx/lib/libxcpp.a(strlen.o)
 .reginfo       0x00000000       0x18 /Applications/microchip/xc32/v1.40/bin/bin/../../lib/gcc/pic32mx/4.8.3/../../../../pic32mx/lib/libxcpp.a(strstr.o)
 .reginfo       0x00000000       0x18 /Applications/microchip/xc32/v1.40/bin/bin/../../lib/gcc/pic32mx/4.8.3/../../../../pic32mx/lib/libxcpp.a(xdint.o)
 .reginfo       0x00000000       0x18 /Applications/microchip/xc32/v1.40/bin/bin/../../lib/gcc/pic32mx/4.8.3/../../../../pic32mx/lib/libxcpp.a(xexit.o)
 .reginfo       0x00000000       0x18 /Applications/microchip/xc32/v1.40/bin/bin/../../lib/gcc/pic32mx/4.8.3/../../../../pic32mx/lib/libxcpp.a(xgetmem.o)
 .reginfo       0x00000000       0x18 /Applications/microchip/xc32/v1.40/bin/bin/../../lib/gcc/pic32mx/4.8.3/../../../../pic32mx/lib/libxcpp.a(strchr.o)
 .reginfo       0x00000000       0x18 /Applications/microchip/xc32/v1.40/bin/bin/../../lib/gcc/pic32mx/4.8.3/../../../../pic32mx/lib/./proc/32MX270F256D/default_isr_vectors.o
 .discard       0x00000000       0xb0 /Applications/microchip/xc32/v1.40/bin/bin/../../lib/gcc/pic32mx/4.8.3/../../../../pic32mx/lib/./proc/32MX270F256D/default_isr_vectors.o
 .reginfo       0x00000000       0x18 /Applications/microchip/xc32/v1.40/bin/bin/../../lib/gcc/pic32mx/4.8.3/../../../../pic32mx/lib/pic32_software_reset.o
 .reginfo       0x00000000       0x18 /Applications/microchip/xc32/v1.40/bin/bin/../../lib/gcc/pic32mx/4.8.3/../../../../pic32mx/lib/./proc/32MX270F256D/processor.o
 .reginfo       0x00000000       0x18 /Applications/microchip/xc32/v1.40/bin/bin/../../lib/gcc/pic32mx/4.8.3/libgcc.a(_divdi3.o)
 .reginfo       0x00000000       0x18 /Applications/microchip/xc32/v1.40/bin/bin/../../lib/gcc/pic32mx/4.8.3/libgcc.a(_moddi3.o)
 .reginfo       0x00000000       0x18 /Applications/microchip/xc32/v1.40/bin/bin/../../lib/gcc/pic32mx/4.8.3/libgcc.a(floatunsisf.o)
 .reginfo       0x00000000       0x18 /Applications/microchip/xc32/v1.40/bin/bin/../../lib/gcc/pic32mx/4.8.3/libgcc.a(unwind-sjlj.o)
 .reginfo       0x00000000       0x18 /Applications/microchip/xc32/v1.40/bin/bin/../../lib/gcc/pic32mx/4.8.3/../../../../pic32mx/lib/libpic32.a(sbrk.o)
 .reginfo       0x00000000       0x18 /Applications/microchip/xc32/v1.40/bin/bin/../../lib/gcc/pic32mx/4.8.3/../../../../pic32mx/lib/libpic32.a(default-bootstrap-exception-handler.o)
 .reginfo       0x00000000       0x18 /Applications/microchip/xc32/v1.40/bin/bin/../../lib/gcc/pic32mx/4.8.3/../../../../pic32mx/lib/libpic32.a(default-on-reset.o)
 .reginfo       0x00000000       0x18 /Applications/microchip/xc32/v1.40/bin/bin/../../lib/gcc/pic32mx/4.8.3/../../../../pic32mx/lib/libpic32.a(default-on-bootstrap.o)
 .reginfo       0x00000000       0x18 /Applications/microchip/xc32/v1.40/bin/bin/../../lib/gcc/pic32mx/4.8.3/../../../../pic32mx/lib/libpic32.a(default-nmi-handler.o)
 .reginfo       0x00000000       0x18 /Applications/microchip/xc32/v1.40/bin/bin/../../lib/gcc/pic32mx/4.8.3/../../../../pic32mx/lib/libpic32.a(_exit.o)
 .reginfo       0x00000000       0x18 /Applications/microchip/xc32/v1.40/bin/bin/../../lib/gcc/pic32mx/4.8.3/../../../../pic32mx/lib/libpic32.a(kill.o)
 .reginfo       0x00000000       0x18 /Applications/microchip/xc32/v1.40/bin/bin/../../lib/gcc/pic32mx/4.8.3/../../../../pic32mx/lib/libpic32.a(getpid.o)
 .reginfo       0x00000000       0x18 /Applications/microchip/xc32/v1.40/bin/bin/../../lib/gcc/pic32mx/4.8.3/../../../../pic32mx/lib/libpic32.a(errno.o)
 .reginfo       0x00000000       0x18 /Applications/microchip/xc32/v1.40/bin/bin/../../lib/gcc/pic32mx/4.8.3/../../../../pic32mx/lib/libpic32.a(general-exception.o)
 .reginfo       0x00000000       0x18 /Applications/microchip/xc32/v1.40/bin/bin/../../lib/gcc/pic32mx/4.8.3/../../../../pic32mx/lib/libpic32.a(vector1.o)
 .reginfo       0x00000000       0x18 /Applications/microchip/xc32/v1.40/bin/bin/../../lib/gcc/pic32mx/4.8.3/../../../../pic32mx/lib/libpic32.a(vector2.o)
 .reginfo       0x00000000       0x18 /Applications/microchip/xc32/v1.40/bin/bin/../../lib/gcc/pic32mx/4.8.3/../../../../pic32mx/lib/libpic32.a(vector3.o)
 .reginfo       0x00000000       0x18 /Applications/microchip/xc32/v1.40/bin/bin/../../lib/gcc/pic32mx/4.8.3/../../../../pic32mx/lib/libpic32.a(vector4.o)
 .reginfo       0x00000000       0x18 /Applications/microchip/xc32/v1.40/bin/bin/../../lib/gcc/pic32mx/4.8.3/../../../../pic32mx/lib/libpic32.a(vector5.o)
 .reginfo       0x00000000       0x18 /Applications/microchip/xc32/v1.40/bin/bin/../../lib/gcc/pic32mx/4.8.3/../../../../pic32mx/lib/libpic32.a(vector6.o)
 .reginfo       0x00000000       0x18 /Applications/microchip/xc32/v1.40/bin/bin/../../lib/gcc/pic32mx/4.8.3/../../../../pic32mx/lib/libpic32.a(vector7.o)
 .reginfo       0x00000000       0x18 /Applications/microchip/xc32/v1.40/bin/bin/../../lib/gcc/pic32mx/4.8.3/../../../../pic32mx/lib/libpic32.a(vector8.o)
 .reginfo       0x00000000       0x18 /Applications/microchip/xc32/v1.40/bin/bin/../../lib/gcc/pic32mx/4.8.3/../../../../pic32mx/lib/libpic32.a(vector9.o)
 .reginfo       0x00000000       0x18 /Applications/microchip/xc32/v1.40/bin/bin/../../lib/gcc/pic32mx/4.8.3/../../../../pic32mx/lib/libpic32.a(vector10.o)
 .reginfo       0x00000000       0x18 /Applications/microchip/xc32/v1.40/bin/bin/../../lib/gcc/pic32mx/4.8.3/../../../../pic32mx/lib/libpic32.a(vector11.o)
 .reginfo       0x00000000       0x18 /Applications/microchip/xc32/v1.40/bin/bin/../../lib/gcc/pic32mx/4.8.3/../../../../pic32mx/lib/libpic32.a(vector12.o)
 .reginfo       0x00000000       0x18 /Applications/microchip/xc32/v1.40/bin/bin/../../lib/gcc/pic32mx/4.8.3/../../../../pic32mx/lib/libpic32.a(vector13.o)
 .reginfo       0x00000000       0x18 /Applications/microchip/xc32/v1.40/bin/bin/../../lib/gcc/pic32mx/4.8.3/../../../../pic32mx/lib/libpic32.a(vector14.o)
 .reginfo       0x00000000       0x18 /Applications/microchip/xc32/v1.40/bin/bin/../../lib/gcc/pic32mx/4.8.3/../../../../pic32mx/lib/libpic32.a(vector15.o)
 .reginfo       0x00000000       0x18 /Applications/microchip/xc32/v1.40/bin/bin/../../lib/gcc/pic32mx/4.8.3/../../../../pic32mx/lib/libpic32.a(vector16.o)
 .reginfo       0x00000000       0x18 /Applications/microchip/xc32/v1.40/bin/bin/../../lib/gcc/pic32mx/4.8.3/../../../../pic32mx/lib/libpic32.a(vector17.o)
 .reginfo       0x00000000       0x18 /Applications/microchip/xc32/v1.40/bin/bin/../../lib/gcc/pic32mx/4.8.3/../../../../pic32mx/lib/libpic32.a(vector18.o)
 .reginfo       0x00000000       0x18 /Applications/microchip/xc32/v1.40/bin/bin/../../lib/gcc/pic32mx/4.8.3/../../../../pic32mx/lib/libpic32.a(vector19.o)
 .reginfo       0x00000000       0x18 /Applications/microchip/xc32/v1.40/bin/bin/../../lib/gcc/pic32mx/4.8.3/../../../../pic32mx/lib/libpic32.a(vector20.o)
 .reginfo       0x00000000       0x18 /Applications/microchip/xc32/v1.40/bin/bin/../../lib/gcc/pic32mx/4.8.3/../../../../pic32mx/lib/libpic32.a(vector21.o)
 .reginfo       0x00000000       0x18 /Applications/microchip/xc32/v1.40/bin/bin/../../lib/gcc/pic32mx/4.8.3/../../../../pic32mx/lib/libpic32.a(vector22.o)
 .reginfo       0x00000000       0x18 /Applications/microchip/xc32/v1.40/bin/bin/../../lib/gcc/pic32mx/4.8.3/../../../../pic32mx/lib/libpic32.a(vector23.o)
 .reginfo       0x00000000       0x18 /Applications/microchip/xc32/v1.40/bin/bin/../../lib/gcc/pic32mx/4.8.3/../../../../pic32mx/lib/libpic32.a(vector24.o)
 .reginfo       0x00000000       0x18 /Applications/microchip/xc32/v1.40/bin/bin/../../lib/gcc/pic32mx/4.8.3/../../../../pic32mx/lib/libpic32.a(vector25.o)
 .reginfo       0x00000000       0x18 /Applications/microchip/xc32/v1.40/bin/bin/../../lib/gcc/pic32mx/4.8.3/../../../../pic32mx/lib/libpic32.a(vector26.o)
 .reginfo       0x00000000       0x18 /Applications/microchip/xc32/v1.40/bin/bin/../../lib/gcc/pic32mx/4.8.3/../../../../pic32mx/lib/libpic32.a(vector27.o)
 .reginfo       0x00000000       0x18 /Applications/microchip/xc32/v1.40/bin/bin/../../lib/gcc/pic32mx/4.8.3/../../../../pic32mx/lib/libpic32.a(vector28.o)
 .reginfo       0x00000000       0x18 /Applications/microchip/xc32/v1.40/bin/bin/../../lib/gcc/pic32mx/4.8.3/../../../../pic32mx/lib/libpic32.a(vector29.o)
 .reginfo       0x00000000       0x18 /Applications/microchip/xc32/v1.40/bin/bin/../../lib/gcc/pic32mx/4.8.3/../../../../pic32mx/lib/libpic32.a(vector30.o)
 .reginfo       0x00000000       0x18 /Applications/microchip/xc32/v1.40/bin/bin/../../lib/gcc/pic32mx/4.8.3/../../../../pic32mx/lib/libpic32.a(vector31.o)
 .reginfo       0x00000000       0x18 /Applications/microchip/xc32/v1.40/bin/bin/../../lib/gcc/pic32mx/4.8.3/../../../../pic32mx/lib/libpic32.a(vector33.o)
 .reginfo       0x00000000       0x18 /Applications/microchip/xc32/v1.40/bin/bin/../../lib/gcc/pic32mx/4.8.3/../../../../pic32mx/lib/libpic32.a(vector34.o)
 .reginfo       0x00000000       0x18 /Applications/microchip/xc32/v1.40/bin/bin/../../lib/gcc/pic32mx/4.8.3/../../../../pic32mx/lib/libpic32.a(vector35.o)
 .reginfo       0x00000000       0x18 /Applications/microchip/xc32/v1.40/bin/bin/../../lib/gcc/pic32mx/4.8.3/../../../../pic32mx/lib/libpic32.a(vector36.o)
 .reginfo       0x00000000       0x18 /Applications/microchip/xc32/v1.40/bin/bin/../../lib/gcc/pic32mx/4.8.3/../../../../pic32mx/lib/libpic32.a(vector37.o)
 .reginfo       0x00000000       0x18 /Applications/microchip/xc32/v1.40/bin/bin/../../lib/gcc/pic32mx/4.8.3/../../../../pic32mx/lib/libpic32.a(vector38.o)
 .reginfo       0x00000000       0x18 /Applications/microchip/xc32/v1.40/bin/bin/../../lib/gcc/pic32mx/4.8.3/../../../../pic32mx/lib/libpic32.a(vector39.o)
 .reginfo       0x00000000       0x18 /Applications/microchip/xc32/v1.40/bin/bin/../../lib/gcc/pic32mx/4.8.3/../../../../pic32mx/lib/libpic32.a(vector40.o)
 .reginfo       0x00000000       0x18 /Applications/microchip/xc32/v1.40/bin/bin/../../lib/gcc/pic32mx/4.8.3/../../../../pic32mx/lib/libpic32.a(vector41.o)
 .reginfo       0x00000000       0x18 /Applications/microchip/xc32/v1.40/bin/bin/../../lib/gcc/pic32mx/4.8.3/../../../../pic32mx/lib/libpic32.a(vector42.o)
 .reginfo       0x00000000       0x18 /Applications/microchip/xc32/v1.40/bin/bin/../../lib/gcc/pic32mx/4.8.3/../../../../pic32mx/lib/libpic32.a(vector43.o)
 .reginfo       0x00000000       0x18 /Applications/microchip/xc32/v1.40/bin/bin/../../lib/gcc/pic32mx/4.8.3/../../../../pic32mx/lib/libpic32.a(default-general-exception-handler.o)
 .reginfo       0x00000000       0x18 /Applications/microchip/xc32/v1.40/bin/bin/../../lib/gcc/pic32mx/4.8.3/../../../../pic32mx/lib/libpic32.a(defaultinterrupt.o)
 .reginfo       0x00000000       0x18 /Applications/microchip/xc32/v1.40/bin/bin/../../lib/gcc/pic32mx/4.8.3/../../../../pic32mx/lib/libm.a(fp32div.o)
 .reginfo       0x00000000       0x18 /Applications/microchip/xc32/v1.40/bin/bin/../../lib/gcc/pic32mx/4.8.3/../../../../pic32mx/lib/libm.a(fp32mul.o)
 .reginfo       0x00000000       0x18 /Applications/microchip/xc32/v1.40/bin/bin/../../lib/gcc/pic32mx/4.8.3/../../../../pic32mx/lib/libm.a(fp32subadd.o)
 .reginfo       0x00000000       0x18 /Applications/microchip/xc32/v1.40/bin/bin/../../lib/gcc/pic32mx/4.8.3/../../../../pic32mx/lib/libm.a(fpcmp.o)
 .reginfo       0x00000000       0x18 /Applications/microchip/xc32/v1.40/bin/bin/../../lib/gcc/pic32mx/4.8.3/../../../../pic32mx/lib/libm.a(fptoul.o)
 .reginfo       0x00000000       0x18 /Applications/microchip/xc32/v1.40/bin/bin/../../lib/gcc/pic32mx/4.8.3/../../../../pic32mx/lib/libm.a(sitofp.o)
 .reginfo       0x00000000       0x18 /Applications/microchip/xc32/v1.40/bin/bin/../../lib/gcc/pic32mx/4.8.3/crtend.o
 .reginfo       0x00000000       0x18 /Applications/microchip/xc32/v1.40/bin/bin/../../lib/gcc/pic32mx/4.8.3/crtn.o

Memory Configuration

Name             Origin             Length             Attributes
kseg0_program_mem 0x9d000000         0x0003f000         xr
exception_mem    0x9d03f000         0x00001000
debug_exec_mem   0x9fc00490         0x00000760
kseg0_boot_mem   0x9fc00490         0x00000000
kseg1_boot_mem   0xbfc00000         0x00000490
config3          0xbfc00bf0         0x00000004
config2          0xbfc00bf4         0x00000004
config1          0xbfc00bf8         0x00000004
config0          0xbfc00bfc         0x00000004
kseg1_data_mem   0xa0000000         0x00010000         w !x
sfrs             0xbf800000         0x00100000
configsfrs       0xbfc00bf0         0x00000010
*default*        0x00000000         0xffffffff

Linker script and memory map

LOAD /Applications/microchip/xc32/v1.40/bin/bin/../../lib/gcc/pic32mx/4.8.3/../../../../pic32mx/lib/./proc/32MX270F256D/cpprt0_mips32r2.o
LOAD /Applications/microchip/xc32/v1.40/bin/bin/../../lib/gcc/pic32mx/4.8.3/crti.o
LOAD /Applications/microchip/xc32/v1.40/bin/bin/../../lib/gcc/pic32mx/4.8.3/crtbegin.o
LOAD build/default/production/main.o
LOAD build/default/production/_ext/1360937237/A24LC512.o
LOAD build/default/production/_ext/1360937237/AConfigurationBits.o
LOAD build/default/production/_ext/1360937237/ACore.o
LOAD build/default/production/_ext/1360937237/ADateTime.o
LOAD build/default/production/_ext/1360937237/AErrorNotifier.o
LOAD build/default/production/_ext/1360937237/AI2CDriver.o
LOAD build/default/production/_ext/1360937237/AInterruptSource.o
LOAD build/default/production/_ext/1360937237/ALcd.o
LOAD build/default/production/_ext/1360937237/APCF8563.o
LOAD build/default/production/_ext/1360937237/APorts.o
LOAD build/default/production/_ext/1360937237/AString.o
LOAD build/default/production/_ext/1360937237/ATime.o
LOAD build/default/production/_ext/1360937237/ATimers.o
LOAD build/default/production/_ext/1360937237/AUARTDriver.o
LOAD build/default/production/_ext/1360937237/Ap32mx270f256d.o
LOAD build/default/production/_ext/1360937237/AESP8266.o
LOAD build/default/production/_ext/1360937237/MTemp.o
LOAD build/default/production/_ext/1360937237/AXbee.o
                0x00000001                __MPLAB_BUILD = 0x1
                0x00004008                _min_heap_size = 0x4008
LOAD /Applications/microchip/xc32/v1.40/bin/bin/../../lib/gcc/pic32mx/4.8.3/../../../../pic32mx/lib/libsupc++.a
LOAD /Applications/microchip/xc32/v1.40/bin/bin/../../lib/gcc/pic32mx/4.8.3/../../../../pic32mx/lib/libxcpp.a
LOAD /Applications/microchip/xc32/v1.40/bin/bin/../../lib/gcc/pic32mx/4.8.3/../../../../pic32mx/lib/./proc/32MX270F256D/default_isr_vectors.o
LOAD /Applications/microchip/xc32/v1.40/bin/bin/../../lib/gcc/pic32mx/4.8.3/../../../../pic32mx/lib/pic32_software_reset.o
                0x00000400                PROVIDE (_min_stack_size, 0x400)
LOAD /Applications/microchip/xc32/v1.40/bin/bin/../../lib/gcc/pic32mx/4.8.3/../../../../pic32mx/lib/./proc/32MX270F256D/processor.o
START GROUP
LOAD libmchp_peripheral.a
END GROUP
START GROUP
LOAD libmchp_peripheral_32MX270F256D.a
END GROUP
                0x00000001                PROVIDE (_vector_spacing, 0x1)
                0x9d03f000                _ebase_address = 0x9d03f000
                0xbfc00000                _RESET_ADDR = 0xbfc00000
                0xbfc00380                _BEV_EXCPT_ADDR = 0xbfc00380
                0xbfc00480                _DBG_EXCPT_ADDR = 0xbfc00480
                0x9fc00490                _DBG_CODE_ADDR = 0x9fc00490
                0x00000760                _DBG_CODE_SIZE = 0x760
                0x9d03f180                _GEN_EXCPT_ADDR = (_ebase_address + 0x180)

.config_BFC00BF0
                0xbfc00bf0        0x4
 *(.config_BFC00BF0)
 .config_BFC00BF0
                0xbfc00bf0        0x4 build/default/production/_ext/1360937237/AConfigurationBits.o

.config_BFC00BF4
                0xbfc00bf4        0x4
 *(.config_BFC00BF4)
 .config_BFC00BF4
                0xbfc00bf4        0x4 build/default/production/_ext/1360937237/AConfigurationBits.o

.config_BFC00BF8
                0xbfc00bf8        0x4
 *(.config_BFC00BF8)
 .config_BFC00BF8
                0xbfc00bf8        0x4 build/default/production/_ext/1360937237/AConfigurationBits.o

.config_BFC00BFC
                0xbfc00bfc        0x4
 *(.config_BFC00BFC)
 .config_BFC00BFC
                0xbfc00bfc        0x4 build/default/production/_ext/1360937237/AConfigurationBits.o
                0xbfc02000                PROVIDE (_DBG_CODE_ADDR, 0xbfc02000)
                0x00000ff0                PROVIDE (_DBG_CODE_SIZE, 0xff0)

.reset          0xbfc00000      0x1d0
 *(.reset)
 .reset         0xbfc00000        0x8 /Applications/microchip/xc32/v1.40/bin/bin/../../lib/gcc/pic32mx/4.8.3/../../../../pic32mx/lib/./proc/32MX270F256D/cpprt0_mips32r2.o
                0xbfc00000                _reset
 *(.reset.startup)
 .reset.startup
                0xbfc00008      0x1c8 /Applications/microchip/xc32/v1.40/bin/bin/../../lib/gcc/pic32mx/4.8.3/../../../../pic32mx/lib/./proc/32MX270F256D/cpprt0_mips32r2.o

.bev_excpt      0xbfc00380       0x10
 *(.bev_handler)
 .bev_handler   0xbfc00380       0x10 /Applications/microchip/xc32/v1.40/bin/bin/../../lib/gcc/pic32mx/4.8.3/../../../../pic32mx/lib/./proc/32MX270F256D/cpprt0_mips32r2.o

.dbg_excpt      0xbfc00480        0x0
                0xbfc00480                . = (. + DEFINED (_DEBUGGER)?0x8:0x0)

.dbg_code       0x9fc00490        0x0
                0x9fc00490                . = (. + DEFINED (_DEBUGGER)?_DBG_CODE_SIZE:0x0)

.app_excpt      0x9d03f180       0x10
 *(.gen_handler)
 .gen_handler   0x9d03f180       0x10 /Applications/microchip/xc32/v1.40/bin/bin/../../lib/gcc/pic32mx/4.8.3/../../../../pic32mx/lib/./proc/32MX270F256D/cpprt0_mips32r2.o

.vector_0       0x9d03f200        0x8
 *(.vector_0)
 .vector_0      0x9d03f200        0x8 build/default/production/_ext/1360937237/ACore.o
                0x9d03f200                __vector_dispatch_0
                0x00000001                ASSERT (((_vector_spacing == 0x0) || (SIZEOF (.vector_0) <= (_vector_spacing << 0x5))), function at exception vector 0 too large)

.vector_1       0x9d03f220        0x8
 *(.vector_1)
 .vector_1      0x9d03f220        0x8 /Applications/microchip/xc32/v1.40/bin/bin/../../lib/gcc/pic32mx/4.8.3/../../../../pic32mx/lib/libpic32.a(vector1.o)
                0x9d03f220                __vector_dispatch_1
                0x00000001                ASSERT (((_vector_spacing == 0x0) || (SIZEOF (.vector_1) <= (_vector_spacing << 0x5))), function at exception vector 1 too large)

.vector_2       0x9d03f240        0x8
 *(.vector_2)
 .vector_2      0x9d03f240        0x8 /Applications/microchip/xc32/v1.40/bin/bin/../../lib/gcc/pic32mx/4.8.3/../../../../pic32mx/lib/libpic32.a(vector2.o)
                0x9d03f240                __vector_dispatch_2
                0x00000001                ASSERT (((_vector_spacing == 0x0) || (SIZEOF (.vector_2) <= (_vector_spacing << 0x5))), function at exception vector 2 too large)

.vector_3       0x9d03f260        0x8
 *(.vector_3)
 .vector_3      0x9d03f260        0x8 /Applications/microchip/xc32/v1.40/bin/bin/../../lib/gcc/pic32mx/4.8.3/../../../../pic32mx/lib/libpic32.a(vector3.o)
                0x9d03f260                __vector_dispatch_3
                0x00000001                ASSERT (((_vector_spacing == 0x0) || (SIZEOF (.vector_3) <= (_vector_spacing << 0x5))), function at exception vector 3 too large)

.vector_4       0x9d03f280        0x8
 *(.vector_4)
 .vector_4      0x9d03f280        0x8 /Applications/microchip/xc32/v1.40/bin/bin/../../lib/gcc/pic32mx/4.8.3/../../../../pic32mx/lib/libpic32.a(vector4.o)
                0x9d03f280                __vector_dispatch_4
                0x00000001                ASSERT (((_vector_spacing == 0x0) || (SIZEOF (.vector_4) <= (_vector_spacing << 0x5))), function at exception vector 4 too large)

.vector_5       0x9d03f2a0        0x8
 *(.vector_5)
 .vector_5      0x9d03f2a0        0x8 /Applications/microchip/xc32/v1.40/bin/bin/../../lib/gcc/pic32mx/4.8.3/../../../../pic32mx/lib/libpic32.a(vector5.o)
                0x9d03f2a0                __vector_dispatch_5
                0x00000001                ASSERT (((_vector_spacing == 0x0) || (SIZEOF (.vector_5) <= (_vector_spacing << 0x5))), function at exception vector 5 too large)

.vector_6       0x9d03f2c0        0x8
 *(.vector_6)
 .vector_6      0x9d03f2c0        0x8 /Applications/microchip/xc32/v1.40/bin/bin/../../lib/gcc/pic32mx/4.8.3/../../../../pic32mx/lib/libpic32.a(vector6.o)
                0x9d03f2c0                __vector_dispatch_6
                0x00000001                ASSERT (((_vector_spacing == 0x0) || (SIZEOF (.vector_6) <= (_vector_spacing << 0x5))), function at exception vector 6 too large)

.vector_7       0x9d03f2e0        0x8
 *(.vector_7)
 .vector_7      0x9d03f2e0        0x8 /Applications/microchip/xc32/v1.40/bin/bin/../../lib/gcc/pic32mx/4.8.3/../../../../pic32mx/lib/libpic32.a(vector7.o)
                0x9d03f2e0                __vector_dispatch_7
                0x00000001                ASSERT (((_vector_spacing == 0x0) || (SIZEOF (.vector_7) <= (_vector_spacing << 0x5))), function at exception vector 7 too large)

.vector_8       0x9d03f300        0x8
 *(.vector_8)
 .vector_8      0x9d03f300        0x8 /Applications/microchip/xc32/v1.40/bin/bin/../../lib/gcc/pic32mx/4.8.3/../../../../pic32mx/lib/libpic32.a(vector8.o)
                0x9d03f300                __vector_dispatch_8
                0x00000001                ASSERT (((_vector_spacing == 0x0) || (SIZEOF (.vector_8) <= (_vector_spacing << 0x5))), function at exception vector 8 too large)

.vector_9       0x9d03f320        0x8
 *(.vector_9)
 .vector_9      0x9d03f320        0x8 /Applications/microchip/xc32/v1.40/bin/bin/../../lib/gcc/pic32mx/4.8.3/../../../../pic32mx/lib/libpic32.a(vector9.o)
                0x9d03f320                __vector_dispatch_9
                0x00000001                ASSERT (((_vector_spacing == 0x0) || (SIZEOF (.vector_9) <= (_vector_spacing << 0x5))), function at exception vector 9 too large)

.vector_10      0x9d03f340        0x8
 *(.vector_10)
 .vector_10     0x9d03f340        0x8 /Applications/microchip/xc32/v1.40/bin/bin/../../lib/gcc/pic32mx/4.8.3/../../../../pic32mx/lib/libpic32.a(vector10.o)
                0x9d03f340                __vector_dispatch_10
                0x00000001                ASSERT (((_vector_spacing == 0x0) || (SIZEOF (.vector_10) <= (_vector_spacing << 0x5))), function at exception vector 10 too large)

.vector_11      0x9d03f360        0x8
 *(.vector_11)
 .vector_11     0x9d03f360        0x8 /Applications/microchip/xc32/v1.40/bin/bin/../../lib/gcc/pic32mx/4.8.3/../../../../pic32mx/lib/libpic32.a(vector11.o)
                0x9d03f360                __vector_dispatch_11
                0x00000001                ASSERT (((_vector_spacing == 0x0) || (SIZEOF (.vector_11) <= (_vector_spacing << 0x5))), function at exception vector 11 too large)

.vector_12      0x9d03f380        0x8
 *(.vector_12)
 .vector_12     0x9d03f380        0x8 /Applications/microchip/xc32/v1.40/bin/bin/../../lib/gcc/pic32mx/4.8.3/../../../../pic32mx/lib/libpic32.a(vector12.o)
                0x9d03f380                __vector_dispatch_12
                0x00000001                ASSERT (((_vector_spacing == 0x0) || (SIZEOF (.vector_12) <= (_vector_spacing << 0x5))), function at exception vector 12 too large)

.vector_13      0x9d03f3a0        0x8
 *(.vector_13)
 .vector_13     0x9d03f3a0        0x8 /Applications/microchip/xc32/v1.40/bin/bin/../../lib/gcc/pic32mx/4.8.3/../../../../pic32mx/lib/libpic32.a(vector13.o)
                0x9d03f3a0                __vector_dispatch_13
                0x00000001                ASSERT (((_vector_spacing == 0x0) || (SIZEOF (.vector_13) <= (_vector_spacing << 0x5))), function at exception vector 13 too large)

.vector_14      0x9d03f3c0        0x8
 *(.vector_14)
 .vector_14     0x9d03f3c0        0x8 /Applications/microchip/xc32/v1.40/bin/bin/../../lib/gcc/pic32mx/4.8.3/../../../../pic32mx/lib/libpic32.a(vector14.o)
                0x9d03f3c0                __vector_dispatch_14
                0x00000001                ASSERT (((_vector_spacing == 0x0) || (SIZEOF (.vector_14) <= (_vector_spacing << 0x5))), function at exception vector 14 too large)

.vector_15      0x9d03f3e0        0x8
 *(.vector_15)
 .vector_15     0x9d03f3e0        0x8 /Applications/microchip/xc32/v1.40/bin/bin/../../lib/gcc/pic32mx/4.8.3/../../../../pic32mx/lib/libpic32.a(vector15.o)
                0x9d03f3e0                __vector_dispatch_15
                0x00000001                ASSERT (((_vector_spacing == 0x0) || (SIZEOF (.vector_15) <= (_vector_spacing << 0x5))), function at exception vector 15 too large)

.vector_16      0x9d03f400        0x8
 *(.vector_16)
 .vector_16     0x9d03f400        0x8 /Applications/microchip/xc32/v1.40/bin/bin/../../lib/gcc/pic32mx/4.8.3/../../../../pic32mx/lib/libpic32.a(vector16.o)
                0x9d03f400                __vector_dispatch_16
                0x00000001                ASSERT (((_vector_spacing == 0x0) || (SIZEOF (.vector_16) <= (_vector_spacing << 0x5))), function at exception vector 16 too large)

.vector_17      0x9d03f420        0x8
 *(.vector_17)
 .vector_17     0x9d03f420        0x8 /Applications/microchip/xc32/v1.40/bin/bin/../../lib/gcc/pic32mx/4.8.3/../../../../pic32mx/lib/libpic32.a(vector17.o)
                0x9d03f420                __vector_dispatch_17
                0x00000001                ASSERT (((_vector_spacing == 0x0) || (SIZEOF (.vector_17) <= (_vector_spacing << 0x5))), function at exception vector 17 too large)

.vector_18      0x9d03f440        0x8
 *(.vector_18)
 .vector_18     0x9d03f440        0x8 /Applications/microchip/xc32/v1.40/bin/bin/../../lib/gcc/pic32mx/4.8.3/../../../../pic32mx/lib/libpic32.a(vector18.o)
                0x9d03f440                __vector_dispatch_18
                0x00000001                ASSERT (((_vector_spacing == 0x0) || (SIZEOF (.vector_18) <= (_vector_spacing << 0x5))), function at exception vector 18 too large)

.vector_19      0x9d03f460        0x8
 *(.vector_19)
 .vector_19     0x9d03f460        0x8 /Applications/microchip/xc32/v1.40/bin/bin/../../lib/gcc/pic32mx/4.8.3/../../../../pic32mx/lib/libpic32.a(vector19.o)
                0x9d03f460                __vector_dispatch_19
                0x00000001                ASSERT (((_vector_spacing == 0x0) || (SIZEOF (.vector_19) <= (_vector_spacing << 0x5))), function at exception vector 19 too large)

.vector_20      0x9d03f480        0x8
 *(.vector_20)
 .vector_20     0x9d03f480        0x8 /Applications/microchip/xc32/v1.40/bin/bin/../../lib/gcc/pic32mx/4.8.3/../../../../pic32mx/lib/libpic32.a(vector20.o)
                0x9d03f480                __vector_dispatch_20
                0x00000001                ASSERT (((_vector_spacing == 0x0) || (SIZEOF (.vector_20) <= (_vector_spacing << 0x5))), function at exception vector 20 too large)

.vector_21      0x9d03f4a0        0x8
 *(.vector_21)
 .vector_21     0x9d03f4a0        0x8 /Applications/microchip/xc32/v1.40/bin/bin/../../lib/gcc/pic32mx/4.8.3/../../../../pic32mx/lib/libpic32.a(vector21.o)
                0x9d03f4a0                __vector_dispatch_21
                0x00000001                ASSERT (((_vector_spacing == 0x0) || (SIZEOF (.vector_21) <= (_vector_spacing << 0x5))), function at exception vector 21 too large)

.vector_22      0x9d03f4c0        0x8
 *(.vector_22)
 .vector_22     0x9d03f4c0        0x8 /Applications/microchip/xc32/v1.40/bin/bin/../../lib/gcc/pic32mx/4.8.3/../../../../pic32mx/lib/libpic32.a(vector22.o)
                0x9d03f4c0                __vector_dispatch_22
                0x00000001                ASSERT (((_vector_spacing == 0x0) || (SIZEOF (.vector_22) <= (_vector_spacing << 0x5))), function at exception vector 22 too large)

.vector_23      0x9d03f4e0        0x8
 *(.vector_23)
 .vector_23     0x9d03f4e0        0x8 /Applications/microchip/xc32/v1.40/bin/bin/../../lib/gcc/pic32mx/4.8.3/../../../../pic32mx/lib/libpic32.a(vector23.o)
                0x9d03f4e0                __vector_dispatch_23
                0x00000001                ASSERT (((_vector_spacing == 0x0) || (SIZEOF (.vector_23) <= (_vector_spacing << 0x5))), function at exception vector 23 too large)

.vector_24      0x9d03f500        0x8
 *(.vector_24)
 .vector_24     0x9d03f500        0x8 /Applications/microchip/xc32/v1.40/bin/bin/../../lib/gcc/pic32mx/4.8.3/../../../../pic32mx/lib/libpic32.a(vector24.o)
                0x9d03f500                __vector_dispatch_24
                0x00000001                ASSERT (((_vector_spacing == 0x0) || (SIZEOF (.vector_24) <= (_vector_spacing << 0x5))), function at exception vector 24 too large)

.vector_25      0x9d03f520        0x8
 *(.vector_25)
 .vector_25     0x9d03f520        0x8 /Applications/microchip/xc32/v1.40/bin/bin/../../lib/gcc/pic32mx/4.8.3/../../../../pic32mx/lib/libpic32.a(vector25.o)
                0x9d03f520                __vector_dispatch_25
                0x00000001                ASSERT (((_vector_spacing == 0x0) || (SIZEOF (.vector_25) <= (_vector_spacing << 0x5))), function at exception vector 25 too large)

.vector_26      0x9d03f540        0x8
 *(.vector_26)
 .vector_26     0x9d03f540        0x8 /Applications/microchip/xc32/v1.40/bin/bin/../../lib/gcc/pic32mx/4.8.3/../../../../pic32mx/lib/libpic32.a(vector26.o)
                0x9d03f540                __vector_dispatch_26
                0x00000001                ASSERT (((_vector_spacing == 0x0) || (SIZEOF (.vector_26) <= (_vector_spacing << 0x5))), function at exception vector 26 too large)

.vector_27      0x9d03f560        0x8
 *(.vector_27)
 .vector_27     0x9d03f560        0x8 /Applications/microchip/xc32/v1.40/bin/bin/../../lib/gcc/pic32mx/4.8.3/../../../../pic32mx/lib/libpic32.a(vector27.o)
                0x9d03f560                __vector_dispatch_27
                0x00000001                ASSERT (((_vector_spacing == 0x0) || (SIZEOF (.vector_27) <= (_vector_spacing << 0x5))), function at exception vector 27 too large)

.vector_28      0x9d03f580        0x8
 *(.vector_28)
 .vector_28     0x9d03f580        0x8 /Applications/microchip/xc32/v1.40/bin/bin/../../lib/gcc/pic32mx/4.8.3/../../../../pic32mx/lib/libpic32.a(vector28.o)
                0x9d03f580                __vector_dispatch_28
                0x00000001                ASSERT (((_vector_spacing == 0x0) || (SIZEOF (.vector_28) <= (_vector_spacing << 0x5))), function at exception vector 28 too large)

.vector_29      0x9d03f5a0        0x8
 *(.vector_29)
 .vector_29     0x9d03f5a0        0x8 /Applications/microchip/xc32/v1.40/bin/bin/../../lib/gcc/pic32mx/4.8.3/../../../../pic32mx/lib/libpic32.a(vector29.o)
                0x9d03f5a0                __vector_dispatch_29
                0x00000001                ASSERT (((_vector_spacing == 0x0) || (SIZEOF (.vector_29) <= (_vector_spacing << 0x5))), function at exception vector 29 too large)

.vector_30      0x9d03f5c0        0x8
 *(.vector_30)
 .vector_30     0x9d03f5c0        0x8 /Applications/microchip/xc32/v1.40/bin/bin/../../lib/gcc/pic32mx/4.8.3/../../../../pic32mx/lib/libpic32.a(vector30.o)
                0x9d03f5c0                __vector_dispatch_30
                0x00000001                ASSERT (((_vector_spacing == 0x0) || (SIZEOF (.vector_30) <= (_vector_spacing << 0x5))), function at exception vector 30 too large)

.vector_31      0x9d03f5e0        0x8
 *(.vector_31)
 .vector_31     0x9d03f5e0        0x8 /Applications/microchip/xc32/v1.40/bin/bin/../../lib/gcc/pic32mx/4.8.3/../../../../pic32mx/lib/libpic32.a(vector31.o)
                0x9d03f5e0                __vector_dispatch_31
                0x00000001                ASSERT (((_vector_spacing == 0x0) || (SIZEOF (.vector_31) <= (_vector_spacing << 0x5))), function at exception vector 31 too large)

.vector_32      0x9d03f600        0x8
 *(.vector_32)
 .vector_32     0x9d03f600        0x8 build/default/production/main.o
                0x9d03f600                __vector_dispatch_32
                0x00000001                ASSERT (((_vector_spacing == 0x0) || (SIZEOF (.vector_32) <= (_vector_spacing << 0x5))), function at exception vector 32 too large)

.vector_33      0x9d03f620        0x8
 *(.vector_33)
 .vector_33     0x9d03f620        0x8 /Applications/microchip/xc32/v1.40/bin/bin/../../lib/gcc/pic32mx/4.8.3/../../../../pic32mx/lib/libpic32.a(vector33.o)
                0x9d03f620                __vector_dispatch_33
                0x00000001                ASSERT (((_vector_spacing == 0x0) || (SIZEOF (.vector_33) <= (_vector_spacing << 0x5))), function at exception vector 33 too large)

.vector_34      0x9d03f640        0x8
 *(.vector_34)
 .vector_34     0x9d03f640        0x8 /Applications/microchip/xc32/v1.40/bin/bin/../../lib/gcc/pic32mx/4.8.3/../../../../pic32mx/lib/libpic32.a(vector34.o)
                0x9d03f640                __vector_dispatch_34
                0x00000001                ASSERT (((_vector_spacing == 0x0) || (SIZEOF (.vector_34) <= (_vector_spacing << 0x5))), function at exception vector 34 too large)

.vector_35      0x9d03f660        0x8
 *(.vector_35)
 .vector_35     0x9d03f660        0x8 /Applications/microchip/xc32/v1.40/bin/bin/../../lib/gcc/pic32mx/4.8.3/../../../../pic32mx/lib/libpic32.a(vector35.o)
                0x9d03f660                __vector_dispatch_35
                0x00000001                ASSERT (((_vector_spacing == 0x0) || (SIZEOF (.vector_35) <= (_vector_spacing << 0x5))), function at exception vector 35 too large)

.vector_36      0x9d03f680        0x8
 *(.vector_36)
 .vector_36     0x9d03f680        0x8 /Applications/microchip/xc32/v1.40/bin/bin/../../lib/gcc/pic32mx/4.8.3/../../../../pic32mx/lib/libpic32.a(vector36.o)
                0x9d03f680                __vector_dispatch_36
                0x00000001                ASSERT (((_vector_spacing == 0x0) || (SIZEOF (.vector_36) <= (_vector_spacing << 0x5))), function at exception vector 36 too large)

.vector_37      0x9d03f6a0        0x8
 *(.vector_37)
 .vector_37     0x9d03f6a0        0x8 /Applications/microchip/xc32/v1.40/bin/bin/../../lib/gcc/pic32mx/4.8.3/../../../../pic32mx/lib/libpic32.a(vector37.o)
                0x9d03f6a0                __vector_dispatch_37
                0x00000001                ASSERT (((_vector_spacing == 0x0) || (SIZEOF (.vector_37) <= (_vector_spacing << 0x5))), function at exception vector 37 too large)

.vector_38      0x9d03f6c0        0x8
 *(.vector_38)
 .vector_38     0x9d03f6c0        0x8 /Applications/microchip/xc32/v1.40/bin/bin/../../lib/gcc/pic32mx/4.8.3/../../../../pic32mx/lib/libpic32.a(vector38.o)
                0x9d03f6c0                __vector_dispatch_38
                0x00000001                ASSERT (((_vector_spacing == 0x0) || (SIZEOF (.vector_38) <= (_vector_spacing << 0x5))), function at exception vector 38 too large)

.vector_39      0x9d03f6e0        0x8
 *(.vector_39)
 .vector_39     0x9d03f6e0        0x8 /Applications/microchip/xc32/v1.40/bin/bin/../../lib/gcc/pic32mx/4.8.3/../../../../pic32mx/lib/libpic32.a(vector39.o)
                0x9d03f6e0                __vector_dispatch_39
                0x00000001                ASSERT (((_vector_spacing == 0x0) || (SIZEOF (.vector_39) <= (_vector_spacing << 0x5))), function at exception vector 39 too large)

.vector_40      0x9d03f700        0x8
 *(.vector_40)
 .vector_40     0x9d03f700        0x8 /Applications/microchip/xc32/v1.40/bin/bin/../../lib/gcc/pic32mx/4.8.3/../../../../pic32mx/lib/libpic32.a(vector40.o)
                0x9d03f700                __vector_dispatch_40
                0x00000001                ASSERT (((_vector_spacing == 0x0) || (SIZEOF (.vector_40) <= (_vector_spacing << 0x5))), function at exception vector 40 too large)

.vector_41      0x9d03f720        0x8
 *(.vector_41)
 .vector_41     0x9d03f720        0x8 /Applications/microchip/xc32/v1.40/bin/bin/../../lib/gcc/pic32mx/4.8.3/../../../../pic32mx/lib/libpic32.a(vector41.o)
                0x9d03f720                __vector_dispatch_41
                0x00000001                ASSERT (((_vector_spacing == 0x0) || (SIZEOF (.vector_41) <= (_vector_spacing << 0x5))), function at exception vector 41 too large)

.vector_42      0x9d03f740        0x8
 *(.vector_42)
 .vector_42     0x9d03f740        0x8 /Applications/microchip/xc32/v1.40/bin/bin/../../lib/gcc/pic32mx/4.8.3/../../../../pic32mx/lib/libpic32.a(vector42.o)
                0x9d03f740                __vector_dispatch_42
                0x00000001                ASSERT (((_vector_spacing == 0x0) || (SIZEOF (.vector_42) <= (_vector_spacing << 0x5))), function at exception vector 42 too large)

.vector_43      0x9d03f760        0x8
 *(.vector_43)
 .vector_43     0x9d03f760        0x8 /Applications/microchip/xc32/v1.40/bin/bin/../../lib/gcc/pic32mx/4.8.3/../../../../pic32mx/lib/libpic32.a(vector43.o)
                0x9d03f760                __vector_dispatch_43
                0x00000001                ASSERT (((_vector_spacing == 0x0) || (SIZEOF (.vector_43) <= (_vector_spacing << 0x5))), function at exception vector 43 too large)

.vector_44      0x9d03f780        0x0
 *(.vector_44)
                0x00000001                ASSERT (((_vector_spacing == 0x0) || (SIZEOF (.vector_44) <= (_vector_spacing << 0x5))), function at exception vector 44 too large)

.vector_45      0x9d03f7a0        0x0
 *(.vector_45)
                0x00000001                ASSERT (((_vector_spacing == 0x0) || (SIZEOF (.vector_45) <= (_vector_spacing << 0x5))), function at exception vector 45 too large)

.vector_46      0x9d03f7c0        0x0
 *(.vector_46)
                0x00000001                ASSERT (((_vector_spacing == 0x0) || (SIZEOF (.vector_46) <= (_vector_spacing << 0x5))), function at exception vector 46 too large)

.vector_47      0x9d03f7e0        0x0
 *(.vector_47)
                0x00000001                ASSERT (((_vector_spacing == 0x0) || (SIZEOF (.vector_47) <= (_vector_spacing << 0x5))), function at exception vector 47 too large)

.vector_48      0x9d03f800        0x0
 *(.vector_48)
                0x00000001                ASSERT (((_vector_spacing == 0x0) || (SIZEOF (.vector_48) <= (_vector_spacing << 0x5))), function at exception vector 48 too large)

.vector_49      0x9d03f820        0x0
 *(.vector_49)
                0x00000001                ASSERT (((_vector_spacing == 0x0) || (SIZEOF (.vector_49) <= (_vector_spacing << 0x5))), function at exception vector 49 too large)

.vector_50      0x9d03f840        0x0
 *(.vector_50)
                0x00000001                ASSERT (((_vector_spacing == 0x0) || (SIZEOF (.vector_50) <= (_vector_spacing << 0x5))), function at exception vector 50 too large)

.vector_51      0x9d03f860        0x0
 *(.vector_51)
                0x00000001                ASSERT (((_vector_spacing == 0x0) || (SIZEOF (.vector_51) <= (_vector_spacing << 0x5))), function at exception vector 51 too large)

.vector_52      0x9d03f880        0x0
 *(.vector_52)
                0x00000001                ASSERT (((_vector_spacing == 0x0) || (SIZEOF (.vector_52) <= (_vector_spacing << 0x5))), function at exception vector 52 too large)

.vector_53      0x9d03f8a0        0x0
 *(.vector_53)
                0x00000001                ASSERT (((_vector_spacing == 0x0) || (SIZEOF (.vector_53) <= (_vector_spacing << 0x5))), function at exception vector 53 too large)

.vector_54      0x9d03f8c0        0x0
 *(.vector_54)
                0x00000001                ASSERT (((_vector_spacing == 0x0) || (SIZEOF (.vector_54) <= (_vector_spacing << 0x5))), function at exception vector 54 too large)

.vector_55      0x9d03f8e0        0x0
 *(.vector_55)
                0x00000001                ASSERT (((_vector_spacing == 0x0) || (SIZEOF (.vector_55) <= (_vector_spacing << 0x5))), function at exception vector 55 too large)

.vector_56      0x9d03f900        0x0
 *(.vector_56)
                0x00000001                ASSERT (((_vector_spacing == 0x0) || (SIZEOF (.vector_56) <= (_vector_spacing << 0x5))), function at exception vector 56 too large)

.vector_57      0x9d03f920        0x0
 *(.vector_57)
                0x00000001                ASSERT (((_vector_spacing == 0x0) || (SIZEOF (.vector_57) <= (_vector_spacing << 0x5))), function at exception vector 57 too large)

.vector_58      0x9d03f940        0x0
 *(.vector_58)
                0x00000001                ASSERT (((_vector_spacing == 0x0) || (SIZEOF (.vector_58) <= (_vector_spacing << 0x5))), function at exception vector 58 too large)

.vector_59      0x9d03f960        0x0
 *(.vector_59)
                0x00000001                ASSERT (((_vector_spacing == 0x0) || (SIZEOF (.vector_59) <= (_vector_spacing << 0x5))), function at exception vector 59 too large)

.vector_60      0x9d03f980        0x0
 *(.vector_60)
                0x00000001                ASSERT (((_vector_spacing == 0x0) || (SIZEOF (.vector_60) <= (_vector_spacing << 0x5))), function at exception vector 60 too large)

.vector_61      0x9d03f9a0        0x0
 *(.vector_61)
                0x00000001                ASSERT (((_vector_spacing == 0x0) || (SIZEOF (.vector_61) <= (_vector_spacing << 0x5))), function at exception vector 61 too large)

.vector_62      0x9d03f9c0        0x0
 *(.vector_62)
                0x00000001                ASSERT (((_vector_spacing == 0x0) || (SIZEOF (.vector_62) <= (_vector_spacing << 0x5))), function at exception vector 62 too large)

.vector_63      0x9d03f9e0        0x0
 *(.vector_63)
                0x00000001                ASSERT (((_vector_spacing == 0x0) || (SIZEOF (.vector_63) <= (_vector_spacing << 0x5))), function at exception vector 63 too large)

.startup
 *(.startup)

.text           0x9d000000     0x27c0
 *(.stub .gnu.linkonce.t.*)
 .gnu.linkonce.t._ZN10AFramework22AAbstractErrorNotifierC2Ev
                0x9d000000       0x34 build/default/production/_ext/1360937237/AErrorNotifier.o
                0x9d000000                AFramework::AAbstractErrorNotifier::AAbstractErrorNotifier()
 .gnu.linkonce.t._ZNV10AFramework9ARegTypes7ACSIReg4isHiEj
                0x9d000034       0x44 build/default/production/_ext/1360937237/AI2CDriver.o
                0x9d000034                AFramework::ARegTypes::ACSIReg::isHi(unsigned int) volatile
 .gnu.linkonce.t._ZNV10AFramework9ARegTypes7ACSIReg4isLoEj
                0x9d000078       0x40 build/default/production/_ext/1360937237/AI2CDriver.o
                0x9d000078                AFramework::ARegTypes::ACSIReg::isLo(unsigned int) volatile
 .gnu.linkonce.t._ZNV10AFramework9ARegTypes7ACSIReg3clrEj
                0x9d0000b8       0x4c build/default/production/_ext/1360937237/APorts.o
                0x9d0000b8                AFramework::ARegTypes::ACSIReg::clr(unsigned int) volatile
 .gnu.linkonce.t._ZNV10AFramework9ARegTypes7ACSIReg3setEj
                0x9d000104       0x50 build/default/production/_ext/1360937237/APorts.o
                0x9d000104                AFramework::ARegTypes::ACSIReg::set(unsigned int) volatile
 .gnu.linkonce.t._ZNV10AFramework9ARegTypes7ACSIReg3invEj
                0x9d000154       0x60 build/default/production/_ext/1360937237/APorts.o
                0x9d000154                AFramework::ARegTypes::ACSIReg::inv(unsigned int) volatile
 .gnu.linkonce.t._ZNVK10AFramework9ARegTypes7ACSIReg3valEv
                0x9d0001b4       0x2c build/default/production/_ext/1360937237/APorts.o
                0x9d0001b4                AFramework::ARegTypes::ACSIReg::val() const volatile
 .gnu.linkonce.t._ZN10AFramework6System9safeAllocIcEEbPPT_RKj
                0x9d0001e0       0xb4 build/default/production/_ext/1360937237/AString.o
                0x9d0001e0                bool AFramework::System::safeAlloc<char>(char**, unsigned int const&)
 .gnu.linkonce.t._ZN10AFramework7AString10numToASCIIIiEEPcT_h
                0x9d000294      0x2bc build/default/production/_ext/1360937237/AString.o
                0x9d000294                char* AFramework::AString::numToASCII<int>(int, unsigned char)
 .gnu.linkonce.t._ZN10AFramework7AString10numToASCIIIfEEPcT_h
                0x9d000550      0x320 build/default/production/_ext/1360937237/AString.o
                0x9d000550                char* AFramework::AString::numToASCII<float>(float, unsigned char)
 .gnu.linkonce.t._ZN10AFramework7AString10numToASCIIIdEEPcT_h
                0x9d000870      0x320 build/default/production/_ext/1360937237/AString.o
                0x9d000870                char* AFramework::AString::numToASCII<double>(double, unsigned char)
 .gnu.linkonce.t._ZN10AFramework6System9safeAllocINS_11ALinkedListINS_7AStringEEEEEbPPT_RKj
                0x9d000b90      0x340 build/default/production/_ext/1360937237/AString.o
                0x9d000b90                bool AFramework::System::safeAlloc<AFramework::ALinkedList<AFramework::AString> >(AFramework::ALinkedList<AFramework::AString>**, unsigned int const&)
 .gnu.linkonce.t._ZN10AFramework11ALinkedListINS_7AStringEED1Ev
                0x9d000ed0       0x70 build/default/production/_ext/1360937237/AString.o
                0x9d000ed0                AFramework::ALinkedList<AFramework::AString>::~ALinkedList()
 .gnu.linkonce.t._ZN10AFramework11ALinkedListINS_7AStringEED0Ev
                0x9d000f40       0x44 build/default/production/_ext/1360937237/AString.o
                0x9d000f40                AFramework::ALinkedList<AFramework::AString>::~ALinkedList()
 .gnu.linkonce.t._ZN10AFramework13AAbstractListINS_7AStringEE6appendERKS1_
                0x9d000f84       0x5c build/default/production/_ext/1360937237/AString.o
                0x9d000f84                AFramework::AAbstractList<AFramework::AString>::append(AFramework::AString const&)
 .gnu.linkonce.t._ZN10AFramework11ALinkedListINS_7AStringEEC1Ev
                0x9d000fe0       0x64 build/default/production/_ext/1360937237/AString.o
                0x9d000fe0                AFramework::ALinkedList<AFramework::AString>::ALinkedList()
 .gnu.linkonce.t._ZN10AFramework13AAbstractListINS_7AStringEED2Ev
                0x9d001044       0x54 build/default/production/_ext/1360937237/AString.o
                0x9d001044                AFramework::AAbstractList<AFramework::AString>::~AAbstractList()
 .gnu.linkonce.t._ZN10AFramework13AAbstractListINS_7AStringEED1Ev
                0x9d001098       0x54 build/default/production/_ext/1360937237/AString.o
                0x9d001098                AFramework::AAbstractList<AFramework::AString>::~AAbstractList()
 .gnu.linkonce.t._ZN10AFramework13AAbstractListINS_7AStringEED0Ev
                0x9d0010ec       0x44 build/default/production/_ext/1360937237/AString.o
                0x9d0010ec                AFramework::AAbstractList<AFramework::AString>::~AAbstractList()
 .gnu.linkonce.t._ZN10AFramework11ALinkedListINS_7AStringEE5ANodeIS1_ED1Ev
                0x9d001130       0x40 build/default/production/_ext/1360937237/AString.o
                0x9d001130                AFramework::ALinkedList<AFramework::AString>::ANode<AFramework::AString>::~ANode()
 .gnu.linkonce.t._ZN10AFramework11ALinkedListINS_7AStringEE5clearEv
                0x9d001170       0xcc build/default/production/_ext/1360937237/AString.o
                0x9d001170                AFramework::ALinkedList<AFramework::AString>::clear()
 .gnu.linkonce.t._ZN10AFramework13AAbstractListINS_7AStringEEC2Ev
                0x9d00123c       0x5c build/default/production/_ext/1360937237/AString.o
                0x9d00123c                AFramework::AAbstractList<AFramework::AString>::AAbstractList()
 .gnu.linkonce.t._ZNK10AFramework11ALinkedListINS_7AStringEE10indexClearEv
                0x9d001298       0x34 build/default/production/_ext/1360937237/AString.o
                0x9d001298                AFramework::ALinkedList<AFramework::AString>::indexClear() const
 .gnu.linkonce.t._ZN10AFramework11ALinkedListINS_7AStringEE9removeAllERKS1_
                0x9d0012cc      0x1b8 build/default/production/_ext/1360937237/AString.o
                0x9d0012cc                AFramework::ALinkedList<AFramework::AString>::removeAll(AFramework::AString const&)
 .gnu.linkonce.t._ZNK10AFramework11ALinkedListINS_7AStringEE8containsERKS1_
                0x9d001484       0x8c build/default/production/_ext/1360937237/AString.o
                0x9d001484                AFramework::ALinkedList<AFramework::AString>::contains(AFramework::AString const&) const
 .gnu.linkonce.t._ZNK10AFramework11ALinkedListINS_7AStringEE7replaceERKS1_RKj
                0x9d001510       0xec build/default/production/_ext/1360937237/AString.o
                0x9d001510                AFramework::ALinkedList<AFramework::AString>::replace(AFramework::AString const&, unsigned int const&) const
 .gnu.linkonce.t._ZNK10AFramework11ALinkedListINS_7AStringEE7hasNextEv
                0x9d0015fc       0xb8 build/default/production/_ext/1360937237/AString.o
                0x9d0015fc                AFramework::ALinkedList<AFramework::AString>::hasNext() const
 .gnu.linkonce.t._ZN10AFramework11ALinkedListINS_7AStringEE6insertERKS1_RKj
                0x9d0016b4      0x260 build/default/production/_ext/1360937237/AString.o
                0x9d0016b4                AFramework::ALinkedList<AFramework::AString>::insert(AFramework::AString const&, unsigned int const&)
 .gnu.linkonce.t._ZN10AFramework11ALinkedListINS_7AStringEE6removeERKj
                0x9d001914      0x220 build/default/production/_ext/1360937237/AString.o
                0x9d001914                AFramework::ALinkedList<AFramework::AString>::remove(unsigned int const&)
 .gnu.linkonce.t._ZNK10AFramework11ALinkedListINS_7AStringEE4nextEv
                0x9d001b34       0xcc build/default/production/_ext/1360937237/AString.o
                0x9d001b34                AFramework::ALinkedList<AFramework::AString>::next() const
 .gnu.linkonce.t._ZNK10AFramework11ALinkedListINS_7AStringEE2atERKj
                0x9d001c00       0xf4 build/default/production/_ext/1360937237/AString.o
                0x9d001c00                AFramework::ALinkedList<AFramework::AString>::at(unsigned int const&) const
 .gnu.linkonce.t._ZNK10AFramework11ALinkedListINS_7AStringEE4seekERKjPPNS2_5ANodeIS1_EE
                0x9d001cf4      0x11c build/default/production/_ext/1360937237/AString.o
                0x9d001cf4                AFramework::ALinkedList<AFramework::AString>::seek(unsigned int const&, AFramework::ALinkedList<AFramework::AString>::ANode<AFramework::AString>**) const
 .gnu.linkonce.t._ZN10AFramework11ALinkedListINS_7AStringEE5ANodeIS1_EC1Ev
                0x9d001e10       0x40 build/default/production/_ext/1360937237/AString.o
                0x9d001e10                AFramework::ALinkedList<AFramework::AString>::ANode<AFramework::AString>::ANode()
 .gnu.linkonce.t._ZN10AFramework6System9safeAllocINS_11ALinkedListINS_7AStringEE5ANodeIS3_EEEEbPPT_RKj
                0x9d001e50      0x360 build/default/production/_ext/1360937237/AString.o
                0x9d001e50                bool AFramework::System::safeAlloc<AFramework::ALinkedList<AFramework::AString>::ANode<AFramework::AString> >(AFramework::ALinkedList<AFramework::AString>::ANode<AFramework::AString>**, unsigned int const&)
 .gnu.linkonce.t._ZNSt14numeric_limitsItE3maxEv
                0x9d0021b0       0x24 build/default/production/_ext/1360937237/ATimers.o
                0x9d0021b0                std::numeric_limits<unsigned short>::max()
 .gnu.linkonce.t._ZNSt14numeric_limitsIjE3maxEv
                0x9d0021d4       0x24 build/default/production/_ext/1360937237/ATimers.o
                0x9d0021d4                std::numeric_limits<unsigned int>::max()
 .gnu.linkonce.t._ZNSt14numeric_limitsIdE3minEv
                0x9d0021f8       0x28 build/default/production/_ext/1360937237/ATimers.o
                0x9d0021f8                std::numeric_limits<double>::min()
 .gnu.linkonce.t._ZNSt14numeric_limitsIdE3maxEv
                0x9d002220       0x28 build/default/production/_ext/1360937237/ATimers.o
                0x9d002220                std::numeric_limits<double>::max()
 .gnu.linkonce.t._Z6strstrPcPKc
                0x9d002248       0x40 build/default/production/_ext/1360937237/AUARTDriver.o
                0x9d002248                strstr(char*, char const*)
 *(.text.*personality*)
 .text.__gxx_personality_sj0
                0x9d002288      0x538 /Applications/microchip/xc32/v1.40/bin/bin/../../lib/gcc/pic32mx/4.8.3/../../../../pic32mx/lib/libsupc++.a(eh_personality.o)
                0x9d002288                __gxx_personality_sj0
 *(.mips16.fn.*)
 *(.mips16.call.*)
 *(.gnu.warning)
                0x9d0027c0                . = ALIGN (0x4)

.init           0x9d0027c0       0x24
 *crti.o(.init)
 .init          0x9d0027c0        0x8 /Applications/microchip/xc32/v1.40/bin/bin/../../lib/gcc/pic32mx/4.8.3/crti.o
                0x9d0027c0                _init
 *crtbegin.o(.init)
 .init          0x9d0027c8        0x8 /Applications/microchip/xc32/v1.40/bin/bin/../../lib/gcc/pic32mx/4.8.3/crtbegin.o
 *(EXCLUDE_FILE(*crtn.o *crtend?.o *crtend.o) .init)
 *crtend.o(.init)
 .init          0x9d0027d0        0x8 /Applications/microchip/xc32/v1.40/bin/bin/../../lib/gcc/pic32mx/4.8.3/crtend.o
 *crtn.o(.init)
 .init          0x9d0027d8        0xc /Applications/microchip/xc32/v1.40/bin/bin/../../lib/gcc/pic32mx/4.8.3/crtn.o
                0x9d0027e4                . = ALIGN (0x4)

.fini           0x9d0027e4       0x1c
 *(.fini)
 .fini          0x9d0027e4        0x8 /Applications/microchip/xc32/v1.40/bin/bin/../../lib/gcc/pic32mx/4.8.3/crti.o
                0x9d0027e4                _fini
 .fini          0x9d0027ec        0x8 /Applications/microchip/xc32/v1.40/bin/bin/../../lib/gcc/pic32mx/4.8.3/crtbegin.o
 .fini          0x9d0027f4        0xc /Applications/microchip/xc32/v1.40/bin/bin/../../lib/gcc/pic32mx/4.8.3/crtn.o
                0x9d002800                . = ALIGN (0x4)

.preinit_array  0x9d002800        0x0
                0x9d002800                PROVIDE (__preinit_array_start, .)
 *(.preinit_array)
                0x9d002800                PROVIDE (__preinit_array_end, .)
                0x9d002800                . = ALIGN (0x4)

.init_array     0x9d002800        0x0
                0x9d002800                PROVIDE (__init_array_start, .)
 *(SORT(.init_array.*))
 *(.init_array)
                0x9d002800                PROVIDE (__init_array_end, .)
                0x9d002800                . = ALIGN (0x4)

.fini_array     0x9d002800        0x0
                0x9d002800                PROVIDE (__fini_array_start, .)
 *(SORT(.fini_array.*))
 *(.fini_array)
                0x9d002800                PROVIDE (__fini_array_end, .)
                0x9d002800                . = ALIGN (0x4)

.ctors          0x9d002800       0x1c
 *crtbegin.o(.ctors)
 .ctors         0x9d002800        0x4 /Applications/microchip/xc32/v1.40/bin/bin/../../lib/gcc/pic32mx/4.8.3/crtbegin.o
 *crtbegin?.o(.ctors)
 *(EXCLUDE_FILE(*crtend?.o *crtend.o) .ctors)
 .ctors         0x9d002804        0x4 build/default/production/_ext/1360937237/ACore.o
 .ctors         0x9d002808        0x4 build/default/production/_ext/1360937237/AI2CDriver.o
 .ctors         0x9d00280c        0x4 build/default/production/_ext/1360937237/APorts.o
 .ctors         0x9d002810        0x4 build/default/production/_ext/1360937237/ATimers.o
 .ctors         0x9d002814        0x4 build/default/production/_ext/1360937237/AUARTDriver.o
 *(SORT(.ctors.*))
 *(.ctors)
 .ctors         0x9d002818        0x4 /Applications/microchip/xc32/v1.40/bin/bin/../../lib/gcc/pic32mx/4.8.3/crtend.o
                0x9d00281c                . = ALIGN (0x4)

.dtors          0x9d00281c        0x8
 *crtbegin.o(.dtors)
 .dtors         0x9d00281c        0x4 /Applications/microchip/xc32/v1.40/bin/bin/../../lib/gcc/pic32mx/4.8.3/crtbegin.o
 *crtbegin?.o(.dtors)
 *(EXCLUDE_FILE(*crtend?.o *crtend.o) .dtors)
 *(SORT(.dtors.*))
 *(.dtors)
 .dtors         0x9d002820        0x4 /Applications/microchip/xc32/v1.40/bin/bin/../../lib/gcc/pic32mx/4.8.3/crtend.o
                0x9d002820                __DTOR_END__
                0x9d002824                . = ALIGN (0x4)

.rodata         0x9d002824      0x470
 *(.gnu.linkonce.r.*)
 .gnu.linkonce.r._ZTVN10AFramework14AErrorNotifierE
                0x9d002824       0x14 build/default/production/_ext/1360937237/AErrorNotifier.o
                0x9d002824                vtable for AFramework::AErrorNotifier
 .gnu.linkonce.r._ZTVN10AFramework22AAbstractErrorNotifierE
                0x9d002838       0x14 build/default/production/_ext/1360937237/AErrorNotifier.o
                0x9d002838                vtable for AFramework::AAbstractErrorNotifier
 .gnu.linkonce.r._ZTIN10AFramework14AErrorNotifierE
                0x9d00284c        0xc build/default/production/_ext/1360937237/AErrorNotifier.o
                0x9d00284c                typeinfo for AFramework::AErrorNotifier
 .gnu.linkonce.r._ZTSN10AFramework14AErrorNotifierE
                0x9d002858       0x20 build/default/production/_ext/1360937237/AErrorNotifier.o
                0x9d002858                typeinfo name for AFramework::AErrorNotifier
 .gnu.linkonce.r._ZTSN10AFramework22AAbstractErrorNotifierE
                0x9d002878       0x28 build/default/production/_ext/1360937237/AErrorNotifier.o
                0x9d002878                typeinfo name for AFramework::AAbstractErrorNotifier
 .gnu.linkonce.r._ZTIN10AFramework22AAbstractErrorNotifierE
                0x9d0028a0        0x8 build/default/production/_ext/1360937237/AErrorNotifier.o
                0x9d0028a0                typeinfo for AFramework::AAbstractErrorNotifier
 .gnu.linkonce.r._ZTVN10AFramework11ALinkedListINS_7AStringEEE
                0x9d0028a8       0x44 build/default/production/_ext/1360937237/AString.o
                0x9d0028a8                vtable for AFramework::ALinkedList<AFramework::AString>
 .gnu.linkonce.r._ZTVN10AFramework13AAbstractListINS_7AStringEEE
                0x9d0028ec       0x44 build/default/production/_ext/1360937237/AString.o
                0x9d0028ec                vtable for AFramework::AAbstractList<AFramework::AString>
 .gnu.linkonce.r._ZTVN10AFramework7AStringE
                0x9d002930       0x14 build/default/production/_ext/1360937237/AString.o
                0x9d002930                vtable for AFramework::AString
 .gnu.linkonce.r._ZTSN10AFramework11ALinkedListINS_7AStringEEE
                0x9d002944       0x2c build/default/production/_ext/1360937237/AString.o
                0x9d002944                typeinfo name for AFramework::ALinkedList<AFramework::AString>
 .gnu.linkonce.r._ZTIN10AFramework11ALinkedListINS_7AStringEEE
                0x9d002970        0xc build/default/production/_ext/1360937237/AString.o
                0x9d002970                typeinfo for AFramework::ALinkedList<AFramework::AString>
 .gnu.linkonce.r._ZTSN10AFramework13AAbstractListINS_7AStringEEE
                0x9d00297c       0x2c build/default/production/_ext/1360937237/AString.o
                0x9d00297c                typeinfo name for AFramework::AAbstractList<AFramework::AString>
 .gnu.linkonce.r._ZTIN10AFramework13AAbstractListINS_7AStringEEE
                0x9d0029a8        0xc build/default/production/_ext/1360937237/AString.o
                0x9d0029a8                typeinfo for AFramework::AAbstractList<AFramework::AString>
 .gnu.linkonce.r._ZTSN10AFramework7AStringE
                0x9d0029b4       0x18 build/default/production/_ext/1360937237/AString.o
                0x9d0029b4                typeinfo name for AFramework::AString
 .gnu.linkonce.r._ZTIN10AFramework7AStringE
                0x9d0029cc        0xc build/default/production/_ext/1360937237/AString.o
                0x9d0029cc                typeinfo for AFramework::AString
 .gnu.linkonce.r._ZTVN10AFramework16A16bitSlaveTimerE
                0x9d0029d8        0xc build/default/production/_ext/1360937237/ATimers.o
                0x9d0029d8                vtable for AFramework::A16bitSlaveTimer
 .gnu.linkonce.r._ZTVN10AFramework17A16bitMasterTimerE
                0x9d0029e4        0xc build/default/production/_ext/1360937237/ATimers.o
                0x9d0029e4                vtable for AFramework::A16bitMasterTimer
 .gnu.linkonce.r._ZTVN10AFramework17A32bitMasterTimerE
                0x9d0029f0        0xc build/default/production/_ext/1360937237/ATimers.o
                0x9d0029f0                vtable for AFramework::A32bitMasterTimer
 .gnu.linkonce.r._ZTVN10AFramework19AAbstract16bitTimerE
                0x9d0029fc        0xc build/default/production/_ext/1360937237/ATimers.o
                0x9d0029fc                vtable for AFramework::AAbstract16bitTimer
 .gnu.linkonce.r._ZTSN10AFramework17A32bitMasterTimerE
                0x9d002a08       0x24 build/default/production/_ext/1360937237/ATimers.o
                0x9d002a08                typeinfo name for AFramework::A32bitMasterTimer
 .gnu.linkonce.r._ZTIN10AFramework17A32bitMasterTimerE
                0x9d002a2c        0xc build/default/production/_ext/1360937237/ATimers.o
                0x9d002a2c                typeinfo for AFramework::A32bitMasterTimer
 .gnu.linkonce.r._ZTIN10AFramework16A16bitSlaveTimerE
                0x9d002a38        0xc build/default/production/_ext/1360937237/ATimers.o
                0x9d002a38                typeinfo for AFramework::A16bitSlaveTimer
 .gnu.linkonce.r._ZTSN10AFramework16A16bitSlaveTimerE
                0x9d002a44       0x24 build/default/production/_ext/1360937237/ATimers.o
                0x9d002a44                typeinfo name for AFramework::A16bitSlaveTimer
 .gnu.linkonce.r._ZTIN10AFramework17A16bitMasterTimerE
                0x9d002a68        0xc build/default/production/_ext/1360937237/ATimers.o
                0x9d002a68                typeinfo for AFramework::A16bitMasterTimer
 .gnu.linkonce.r._ZTSN10AFramework17A16bitMasterTimerE
                0x9d002a74       0x24 build/default/production/_ext/1360937237/ATimers.o
                0x9d002a74                typeinfo name for AFramework::A16bitMasterTimer
 .gnu.linkonce.r._ZTSN10AFramework19AAbstract16bitTimerE
                0x9d002a98       0x24 build/default/production/_ext/1360937237/ATimers.o
                0x9d002a98                typeinfo name for AFramework::AAbstract16bitTimer
 .gnu.linkonce.r._ZTIN10AFramework19AAbstract16bitTimerE
                0x9d002abc        0x8 build/default/production/_ext/1360937237/ATimers.o
                0x9d002abc                typeinfo for AFramework::AAbstract16bitTimer
 .gnu.linkonce.r._ZTVN10__cxxabiv117__class_type_infoE._ZTVN10__cxxabiv117__class_type_infoE
                0x9d002ac4       0x2c /Applications/microchip/xc32/v1.40/bin/bin/../../lib/gcc/pic32mx/4.8.3/../../../../pic32mx/lib/libsupc++.a(class_type_info.o)
                0x9d002ac4                vtable for __cxxabiv1::__class_type_info
 .gnu.linkonce.r._ZTIN10__cxxabiv117__class_type_infoE._ZTIN10__cxxabiv117__class_type_infoE
                0x9d002af0        0xc /Applications/microchip/xc32/v1.40/bin/bin/../../lib/gcc/pic32mx/4.8.3/../../../../pic32mx/lib/libsupc++.a(class_type_info.o)
                0x9d002af0                typeinfo for __cxxabiv1::__class_type_info
 .gnu.linkonce.r._ZTSN10__cxxabiv117__class_type_infoE._ZTSN10__cxxabiv117__class_type_infoE
                0x9d002afc       0x24 /Applications/microchip/xc32/v1.40/bin/bin/../../lib/gcc/pic32mx/4.8.3/../../../../pic32mx/lib/libsupc++.a(class_type_info.o)
                0x9d002afc                typeinfo name for __cxxabiv1::__class_type_info
 .gnu.linkonce.r._ZTVN10__cxxabiv120__si_class_type_infoE._ZTVN10__cxxabiv120__si_class_type_infoE
                0x9d002b20       0x2c /Applications/microchip/xc32/v1.40/bin/bin/../../lib/gcc/pic32mx/4.8.3/../../../../pic32mx/lib/libsupc++.a(si_class_type_info.o)
                0x9d002b20                vtable for __cxxabiv1::__si_class_type_info
 .gnu.linkonce.r._ZTIN10__cxxabiv120__si_class_type_infoE._ZTIN10__cxxabiv120__si_class_type_infoE
                0x9d002b4c        0xc /Applications/microchip/xc32/v1.40/bin/bin/../../lib/gcc/pic32mx/4.8.3/../../../../pic32mx/lib/libsupc++.a(si_class_type_info.o)
                0x9d002b4c                typeinfo for __cxxabiv1::__si_class_type_info
 .gnu.linkonce.r._ZTSN10__cxxabiv120__si_class_type_infoE._ZTSN10__cxxabiv120__si_class_type_infoE
                0x9d002b58       0x28 /Applications/microchip/xc32/v1.40/bin/bin/../../lib/gcc/pic32mx/4.8.3/../../../../pic32mx/lib/libsupc++.a(si_class_type_info.o)
                0x9d002b58                typeinfo name for __cxxabiv1::__si_class_type_info
 .gnu.linkonce.r._ZTVSt9type_info._ZTVSt9type_info
                0x9d002b80       0x20 /Applications/microchip/xc32/v1.40/bin/bin/../../lib/gcc/pic32mx/4.8.3/../../../../pic32mx/lib/libsupc++.a(tinfo.o)
                0x9d002b80                vtable for std::type_info
 .gnu.linkonce.r._ZTISt9type_info._ZTISt9type_info
                0x9d002ba0        0x8 /Applications/microchip/xc32/v1.40/bin/bin/../../lib/gcc/pic32mx/4.8.3/../../../../pic32mx/lib/libsupc++.a(tinfo.o)
                0x9d002ba0                typeinfo for std::type_info
 .gnu.linkonce.r._ZTSSt9type_info._ZTSSt9type_info
                0x9d002ba8       0x10 /Applications/microchip/xc32/v1.40/bin/bin/../../lib/gcc/pic32mx/4.8.3/../../../../pic32mx/lib/libsupc++.a(tinfo.o)
                0x9d002ba8                typeinfo name for std::type_info
 .gnu.linkonce.r._ZTVN10__cxxabiv119__foreign_exceptionE._ZTVN10__cxxabiv119__foreign_exceptionE
                0x9d002bb8       0x14 /Applications/microchip/xc32/v1.40/bin/bin/../../lib/gcc/pic32mx/4.8.3/../../../../pic32mx/lib/libsupc++.a(eh_exception.o)
                0x9d002bb8                vtable for __cxxabiv1::__foreign_exception
 .gnu.linkonce.r._ZTVN10__cxxabiv115__forced_unwindE._ZTVN10__cxxabiv115__forced_unwindE
                0x9d002bcc       0x14 /Applications/microchip/xc32/v1.40/bin/bin/../../lib/gcc/pic32mx/4.8.3/../../../../pic32mx/lib/libsupc++.a(eh_exception.o)
                0x9d002bcc                vtable for __cxxabiv1::__forced_unwind
 .gnu.linkonce.r._ZTVSt13bad_exception._ZTVSt13bad_exception
                0x9d002be0       0x14 /Applications/microchip/xc32/v1.40/bin/bin/../../lib/gcc/pic32mx/4.8.3/../../../../pic32mx/lib/libsupc++.a(eh_exception.o)
                0x9d002be0                vtable for std::bad_exception
 .gnu.linkonce.r._ZTVSt9exception._ZTVSt9exception
                0x9d002bf4       0x14 /Applications/microchip/xc32/v1.40/bin/bin/../../lib/gcc/pic32mx/4.8.3/../../../../pic32mx/lib/libsupc++.a(eh_exception.o)
                0x9d002bf4                vtable for std::exception
 .gnu.linkonce.r._ZTIN10__cxxabiv119__foreign_exceptionE._ZTIN10__cxxabiv119__foreign_exceptionE
                0x9d002c08        0x8 /Applications/microchip/xc32/v1.40/bin/bin/../../lib/gcc/pic32mx/4.8.3/../../../../pic32mx/lib/libsupc++.a(eh_exception.o)
                0x9d002c08                typeinfo for __cxxabiv1::__foreign_exception
 .gnu.linkonce.r._ZTSN10__cxxabiv119__foreign_exceptionE._ZTSN10__cxxabiv119__foreign_exceptionE
                0x9d002c10       0x24 /Applications/microchip/xc32/v1.40/bin/bin/../../lib/gcc/pic32mx/4.8.3/../../../../pic32mx/lib/libsupc++.a(eh_exception.o)
                0x9d002c10                typeinfo name for __cxxabiv1::__foreign_exception
 .gnu.linkonce.r._ZTIN10__cxxabiv115__forced_unwindE._ZTIN10__cxxabiv115__forced_unwindE
                0x9d002c34        0x8 /Applications/microchip/xc32/v1.40/bin/bin/../../lib/gcc/pic32mx/4.8.3/../../../../pic32mx/lib/libsupc++.a(eh_exception.o)
                0x9d002c34                typeinfo for __cxxabiv1::__forced_unwind
 .gnu.linkonce.r._ZTSN10__cxxabiv115__forced_unwindE._ZTSN10__cxxabiv115__forced_unwindE
                0x9d002c3c       0x20 /Applications/microchip/xc32/v1.40/bin/bin/../../lib/gcc/pic32mx/4.8.3/../../../../pic32mx/lib/libsupc++.a(eh_exception.o)
                0x9d002c3c                typeinfo name for __cxxabiv1::__forced_unwind
 .gnu.linkonce.r._ZTISt13bad_exception._ZTISt13bad_exception
                0x9d002c5c        0xc /Applications/microchip/xc32/v1.40/bin/bin/../../lib/gcc/pic32mx/4.8.3/../../../../pic32mx/lib/libsupc++.a(eh_exception.o)
                0x9d002c5c                typeinfo for std::bad_exception
 .gnu.linkonce.r._ZTSSt13bad_exception._ZTSSt13bad_exception
                0x9d002c68       0x14 /Applications/microchip/xc32/v1.40/bin/bin/../../lib/gcc/pic32mx/4.8.3/../../../../pic32mx/lib/libsupc++.a(eh_exception.o)
                0x9d002c68                typeinfo name for std::bad_exception
 .gnu.linkonce.r._ZTISt9exception._ZTISt9exception
                0x9d002c7c        0x8 /Applications/microchip/xc32/v1.40/bin/bin/../../lib/gcc/pic32mx/4.8.3/../../../../pic32mx/lib/libsupc++.a(eh_exception.o)
                0x9d002c7c                typeinfo for std::exception
 .gnu.linkonce.r._ZTSSt9exception._ZTSSt9exception
                0x9d002c84       0x10 /Applications/microchip/xc32/v1.40/bin/bin/../../lib/gcc/pic32mx/4.8.3/../../../../pic32mx/lib/libsupc++.a(eh_exception.o)
                0x9d002c84                typeinfo name for std::exception
 *(.rodata1)
                0x9d002c94                . = ALIGN (0x4)

.sdata2         0x9d002c94        0x0
 *(.sdata2 .sdata2.* .gnu.linkonce.s2.*)
                0x9d002c94                . = ALIGN (0x4)

.sbss2          0x9d002c94        0x0
 *(.sbss2 .sbss2.* .gnu.linkonce.sb2.*)
                0x9d002c94                . = ALIGN (0x4)

.eh_frame_hdr
 *(.eh_frame_hdr)
                0x9d002c94                . = ALIGN (0x4)

.eh_frame
 *(.eh_frame)
                0x9d002c94                . = ALIGN (0x4)

.gcc_except_table
 *(.gcc_except_table .gcc_except_table.*)
                0x9d002c94                . = ALIGN (0x4)

.dbg_data       0xa0000000        0x0
                0xa0000000                . = (. + DEFINED (_DEBUGGER)?0x200:0x0)

.jcr            0xa0000000        0x4
 *(.jcr)
 .jcr           0xa0000000        0x0 /Applications/microchip/xc32/v1.40/bin/bin/../../lib/gcc/pic32mx/4.8.3/crtbegin.o
 .jcr           0xa0000000        0x4 /Applications/microchip/xc32/v1.40/bin/bin/../../lib/gcc/pic32mx/4.8.3/crtend.o
                0xa0000004                . = ALIGN (0x4)

.eh_frame       0xa0000004        0x4
 *(.eh_frame)
 .eh_frame      0xa0000004        0x0 /Applications/microchip/xc32/v1.40/bin/bin/../../lib/gcc/pic32mx/4.8.3/crtbegin.o
 .eh_frame      0xa0000004        0x4 /Applications/microchip/xc32/v1.40/bin/bin/../../lib/gcc/pic32mx/4.8.3/crtend.o
                0xa0000008                . = ALIGN (0x4)

.gcc_except_table
                0xa0000008      0x140
 *(.gcc_except_table .gcc_except_table.*)
 .gcc_except_table
                0xa0000008        0xc build/default/production/main.o
 .gcc_except_table
                0xa0000014        0x6 build/default/production/_ext/1360937237/ALcd.o
 .gcc_except_table
                0xa000001a       0x54 build/default/production/_ext/1360937237/AString.o
 .gcc_except_table
                0xa000006e       0xa0 build/default/production/_ext/1360937237/AESP8266.o
 .gcc_except_table
                0xa000010e        0x8 build/default/production/_ext/1360937237/MTemp.o
 *fill*         0xa0000116        0x2 
 .gcc_except_table
                0xa0000118       0x20 /Applications/microchip/xc32/v1.40/bin/bin/../../lib/gcc/pic32mx/4.8.3/../../../../pic32mx/lib/libsupc++.a(eh_personality.o)
 .gcc_except_table
                0xa0000138       0x10 /Applications/microchip/xc32/v1.40/bin/bin/../../lib/gcc/pic32mx/4.8.3/../../../../pic32mx/lib/libsupc++.a(eh_terminate.o)
                0xa0000148                . = ALIGN (0x4)

.persist        0xa0000148        0x0
                0xa0000148                _persist_begin = .
 *(.persist .persist.*)
 *(.pbss .pbss.*)
                0xa0000148                . = ALIGN (0x4)
                0xa0000148                _persist_end = .

.data           0xa0000148        0x8
 *(.gnu.linkonce.d.*)
 .gnu.linkonce.d.DW.ref.__gxx_personality_sj0
                0xa0000148        0x4 build/default/production/main.o
                0xa0000148                DW.ref.__gxx_personality_sj0
 .gnu.linkonce.d.DW.ref.__gxx_personality_sj0.DW.ref.__gxx_personality_sj0
                0xa000014c        0x4 /Applications/microchip/xc32/v1.40/bin/bin/../../lib/gcc/pic32mx/4.8.3/../../../../pic32mx/lib/libsupc++.a(eh_personality.o)
 *(.data1)
                0xa0000150                . = ALIGN (0x4)
                0xa0000150                . = .
                0xa0008140                _gp = (ALIGN (0x10) + 0x7ff0)

.got            0xa0000150        0x0
 *(.got.plt)
 *(.got)
                0xa0000150                . = ALIGN (0x4)

.sdata          0xa0000150       0x30
                0xa0000150                _sdata_begin = .
 *(.sdata .sdata.* .gnu.linkonce.s.*)
 .sdata         0xa0000150        0x4 /Applications/microchip/xc32/v1.40/bin/bin/../../lib/gcc/pic32mx/4.8.3/crtbegin.o
                0xa0000150                __dso_handle
 .sdata         0xa0000154       0x1c build/default/production/_ext/1360937237/ACore.o
                0xa0000154                AFramework::System::m_toggle_delay
                0xa0000158                AFramework::System::m_xc32_offs
                0xa000015c                AFramework::System::m_toggle_flag
                0xa0000160                AFramework::System::m_int_reg
                0xa0000164                AFramework::System::m_rpi
                0xa0000168                AFramework::System::m_rpo
                0xa000016c                AFramework::System::m_dev
 .sdata         0xa0000170        0x4 build/default/production/_ext/1360937237/AInterruptSource.o
                0xa0000170                AFramework::AInterruptSource::m_int_reg
 .sdata         0xa0000174        0x4 build/default/production/_ext/1360937237/AString.o
                0xa0000174                AFramework::endl
 .sdata._ZN10__cxxabiv120__unexpected_handlerE.__unexpected_handler
                0xa0000178        0x4 /Applications/microchip/xc32/v1.40/bin/bin/../../lib/gcc/pic32mx/4.8.3/../../../../pic32mx/lib/libsupc++.a(eh_unex_handler.o)
                0xa0000178                __cxxabiv1::__unexpected_handler
 .sdata._ZN10__cxxabiv119__terminate_handlerE.__terminate_handler
                0xa000017c        0x4 /Applications/microchip/xc32/v1.40/bin/bin/../../lib/gcc/pic32mx/4.8.3/../../../../pic32mx/lib/libsupc++.a(eh_term_handler.o)
                0xa000017c                __cxxabiv1::__terminate_handler
                0xa0000180                . = ALIGN (0x4)
                0xa0000180                _sdata_end = .

.lit8
 *(.lit8)

.lit4
 *(.lit4)
                0xa0000180                . = ALIGN (0x4)
                0xa0000180                _data_end = .
                0xa0000180                _bss_begin = .

.sbss           0xa0000180       0x60
                0xa0000180                _sbss_begin = .
 *(.dynsbss)
 *(.sbss .sbss.* .gnu.linkonce.sb.*)
 .sbss          0xa0000180       0x40 build/default/production/_ext/1360937237/ACore.o
                0xa0000180                AFramework::System::m_heap_head
                0xa0000184                AFramework::System::m_ledGpio
                0xa0000188                AFramework::System::m_ct_rate
                0xa000018c                AFramework::System::m_pri_clock
                0xa0000190                AFramework::System::m_sec_clock
                0xa0000194                AFramework::System::m_bus_clock
                0xa0000198                AFramework::System::m_heap_size
                0xa000019c                AFramework::System::m_heap_busy
                0xa00001a0                AFramework::System::m_init_flag
                0xa00001a8                AFramework::System::m_alive
                0xa00001b0                AFramework::System::m_toggle
                0xa00001b8                AFramework::System::m_ledPort
 .sbss          0xa00001c0        0xc build/default/production/_ext/1360937237/APorts.o
                0xa00001c0                AFramework::PortA
                0xa00001c4                AFramework::PortB
                0xa00001c8                AFramework::PortC
 .sbss._ZL14emergency_used.emergency_used
                0xa00001cc        0x4 /Applications/microchip/xc32/v1.40/bin/bin/../../lib/gcc/pic32mx/4.8.3/../../../../pic32mx/lib/libsupc++.a(eh_alloc.o)
 .sbss._ZL15dependents_used.dependents_used
                0xa00001d0        0x4 /Applications/microchip/xc32/v1.40/bin/bin/../../lib/gcc/pic32mx/4.8.3/../../../../pic32mx/lib/libsupc++.a(eh_alloc.o)
 .sbss._ZN12_GLOBAL__N_115emergency_mutexE.emergency_mutex
                0xa00001d4        0x4 /Applications/microchip/xc32/v1.40/bin/bin/../../lib/gcc/pic32mx/4.8.3/../../../../pic32mx/lib/libsupc++.a(eh_alloc.o)
 .sbss._ZL10eh_globals.eh_globals
                0xa00001d8        0x8 /Applications/microchip/xc32/v1.40/bin/bin/../../lib/gcc/pic32mx/4.8.3/../../../../pic32mx/lib/libsupc++.a(eh_globals.o)
 *(.scommon)
                0xa00001e0                _sbss_end = .
                0xa00001e0                . = ALIGN (0x4)

.bss            0xa00001e0        0x0
 *(.dynbss)
 *(COMMON)
                0xa00001e0                . = ALIGN ((. != 0x0)?0x4:0x1)
                0xa00001e0                . = ALIGN (0x4)
                0xa00001e0                _end = .
                0xa00001e0                _bss_end = .
                0x00010000                _bmxdudba_address = 0x10000
                0x00010000                _bmxdupba_address = 0x10000

/DISCARD/
 *(.pdr)
 *(.rel.dyn)
 *(.note.GNU-stack)
 *(.note.GNU-stack)
 *(.gnu_debuglink)
 *(.gnu.lto_*)
 *(.discard)

.gptab.sdata
 *(.gptab.data)
 *(.gptab.sdata)

.gptab.sbss
 *(.gptab.bss)
 *(.gptab.sbss)

.mdebug.abi32   0xa00001e0        0x0
 *(.mdebug.abi32)
 .mdebug.abi32  0xa00001e0        0x0 /Applications/microchip/xc32/v1.40/bin/bin/../../lib/gcc/pic32mx/4.8.3/crtbegin.o
 .mdebug.abi32  0xa00001e0        0x0 build/default/production/main.o
 .mdebug.abi32  0xa00001e0        0x0 build/default/production/_ext/1360937237/A24LC512.o
 .mdebug.abi32  0xa00001e0        0x0 build/default/production/_ext/1360937237/AConfigurationBits.o
 .mdebug.abi32  0xa00001e0        0x0 build/default/production/_ext/1360937237/ACore.o
 .mdebug.abi32  0xa00001e0        0x0 build/default/production/_ext/1360937237/ADateTime.o
 .mdebug.abi32  0xa00001e0        0x0 build/default/production/_ext/1360937237/AErrorNotifier.o
 .mdebug.abi32  0xa00001e0        0x0 build/default/production/_ext/1360937237/AI2CDriver.o
 .mdebug.abi32  0xa00001e0        0x0 build/default/production/_ext/1360937237/AInterruptSource.o
 .mdebug.abi32  0xa00001e0        0x0 build/default/production/_ext/1360937237/ALcd.o
 .mdebug.abi32  0xa00001e0        0x0 build/default/production/_ext/1360937237/APCF8563.o
 .mdebug.abi32  0xa00001e0        0x0 build/default/production/_ext/1360937237/APorts.o
 .mdebug.abi32  0xa00001e0        0x0 build/default/production/_ext/1360937237/AString.o
 .mdebug.abi32  0xa00001e0        0x0 build/default/production/_ext/1360937237/ATime.o
 .mdebug.abi32  0xa00001e0        0x0 build/default/production/_ext/1360937237/ATimers.o
 .mdebug.abi32  0xa00001e0        0x0 build/default/production/_ext/1360937237/AUARTDriver.o
 .mdebug.abi32  0xa00001e0        0x0 build/default/production/_ext/1360937237/AESP8266.o
 .mdebug.abi32  0xa00001e0        0x0 build/default/production/_ext/1360937237/MTemp.o
 .mdebug.abi32  0xa00001e0        0x0 build/default/production/_ext/1360937237/AXbee.o
 .mdebug.abi32  0xa00001e0        0x0 /Applications/microchip/xc32/v1.40/bin/bin/../../lib/gcc/pic32mx/4.8.3/../../../../pic32mx/lib/libsupc++.a(class_type_info.o)
 .mdebug.abi32  0xa00001e0        0x0 /Applications/microchip/xc32/v1.40/bin/bin/../../lib/gcc/pic32mx/4.8.3/../../../../pic32mx/lib/libsupc++.a(eh_personality.o)
 .mdebug.abi32  0xa00001e0        0x0 /Applications/microchip/xc32/v1.40/bin/bin/../../lib/gcc/pic32mx/4.8.3/../../../../pic32mx/lib/libsupc++.a(eh_terminate.o)
 .mdebug.abi32  0xa00001e0        0x0 /Applications/microchip/xc32/v1.40/bin/bin/../../lib/gcc/pic32mx/4.8.3/../../../../pic32mx/lib/libsupc++.a(eh_throw.o)
 .mdebug.abi32  0xa00001e0        0x0 /Applications/microchip/xc32/v1.40/bin/bin/../../lib/gcc/pic32mx/4.8.3/../../../../pic32mx/lib/libsupc++.a(eh_unex_handler.o)
 .mdebug.abi32  0xa00001e0        0x0 /Applications/microchip/xc32/v1.40/bin/bin/../../lib/gcc/pic32mx/4.8.3/../../../../pic32mx/lib/libsupc++.a(si_class_type_info.o)
 .mdebug.abi32  0xa00001e0        0x0 /Applications/microchip/xc32/v1.40/bin/bin/../../lib/gcc/pic32mx/4.8.3/../../../../pic32mx/lib/libsupc++.a(tinfo.o)
 .mdebug.abi32  0xa00001e0        0x0 /Applications/microchip/xc32/v1.40/bin/bin/../../lib/gcc/pic32mx/4.8.3/../../../../pic32mx/lib/libsupc++.a(pure.o)
 .mdebug.abi32  0xa00001e0        0x0 /Applications/microchip/xc32/v1.40/bin/bin/../../lib/gcc/pic32mx/4.8.3/../../../../pic32mx/lib/libsupc++.a(eh_alloc.o)
 .mdebug.abi32  0xa00001e0        0x0 /Applications/microchip/xc32/v1.40/bin/bin/../../lib/gcc/pic32mx/4.8.3/../../../../pic32mx/lib/libsupc++.a(eh_call.o)
 .mdebug.abi32  0xa00001e0        0x0 /Applications/microchip/xc32/v1.40/bin/bin/../../lib/gcc/pic32mx/4.8.3/../../../../pic32mx/lib/libsupc++.a(eh_catch.o)
 .mdebug.abi32  0xa00001e0        0x0 /Applications/microchip/xc32/v1.40/bin/bin/../../lib/gcc/pic32mx/4.8.3/../../../../pic32mx/lib/libsupc++.a(eh_exception.o)
 .mdebug.abi32  0xa00001e0        0x0 /Applications/microchip/xc32/v1.40/bin/bin/../../lib/gcc/pic32mx/4.8.3/../../../../pic32mx/lib/libsupc++.a(eh_globals.o)
 .mdebug.abi32  0xa00001e0        0x0 /Applications/microchip/xc32/v1.40/bin/bin/../../lib/gcc/pic32mx/4.8.3/../../../../pic32mx/lib/libsupc++.a(eh_term_handler.o)
 .mdebug.abi32  0xa00001e0        0x0 /Applications/microchip/xc32/v1.40/bin/bin/../../lib/gcc/pic32mx/4.8.3/../../../../pic32mx/lib/libxcpp.a(abort.o)
 .mdebug.abi32  0xa00001e0        0x0 /Applications/microchip/xc32/v1.40/bin/bin/../../lib/gcc/pic32mx/4.8.3/../../../../pic32mx/lib/libxcpp.a(abs.o)
 .mdebug.abi32  0xa00001e0        0x0 /Applications/microchip/xc32/v1.40/bin/bin/../../lib/gcc/pic32mx/4.8.3/../../../../pic32mx/lib/libxcpp.a(exit.o)
 .mdebug.abi32  0xa00001e0        0x0 /Applications/microchip/xc32/v1.40/bin/bin/../../lib/gcc/pic32mx/4.8.3/../../../../pic32mx/lib/libxcpp.a(free.o)
 .mdebug.abi32  0xa00001e0        0x0 /Applications/microchip/xc32/v1.40/bin/bin/../../lib/gcc/pic32mx/4.8.3/../../../../pic32mx/lib/libxcpp.a(malloc.o)
 .mdebug.abi32  0xa00001e0        0x0 /Applications/microchip/xc32/v1.40/bin/bin/../../lib/gcc/pic32mx/4.8.3/../../../../pic32mx/lib/libxcpp.a(memcpy.o)
 .mdebug.abi32  0xa00001e0        0x0 /Applications/microchip/xc32/v1.40/bin/bin/../../lib/gcc/pic32mx/4.8.3/../../../../pic32mx/lib/libxcpp.a(memset.o)
 .mdebug.abi32  0xa00001e0        0x0 /Applications/microchip/xc32/v1.40/bin/bin/../../lib/gcc/pic32mx/4.8.3/../../../../pic32mx/lib/libxcpp.a(raise.o)
 .mdebug.abi32  0xa00001e0        0x0 /Applications/microchip/xc32/v1.40/bin/bin/../../lib/gcc/pic32mx/4.8.3/../../../../pic32mx/lib/libxcpp.a(round.o)
 .mdebug.abi32  0xa00001e0        0x0 /Applications/microchip/xc32/v1.40/bin/bin/../../lib/gcc/pic32mx/4.8.3/../../../../pic32mx/lib/libxcpp.a(strcmp.o)
 .mdebug.abi32  0xa00001e0        0x0 /Applications/microchip/xc32/v1.40/bin/bin/../../lib/gcc/pic32mx/4.8.3/../../../../pic32mx/lib/libxcpp.a(strlen.o)
 .mdebug.abi32  0xa00001e0        0x0 /Applications/microchip/xc32/v1.40/bin/bin/../../lib/gcc/pic32mx/4.8.3/../../../../pic32mx/lib/libxcpp.a(strstr.o)
 .mdebug.abi32  0xa00001e0        0x0 /Applications/microchip/xc32/v1.40/bin/bin/../../lib/gcc/pic32mx/4.8.3/../../../../pic32mx/lib/libxcpp.a(xdint.o)
 .mdebug.abi32  0xa00001e0        0x0 /Applications/microchip/xc32/v1.40/bin/bin/../../lib/gcc/pic32mx/4.8.3/../../../../pic32mx/lib/libxcpp.a(xexit.o)
 .mdebug.abi32  0xa00001e0        0x0 /Applications/microchip/xc32/v1.40/bin/bin/../../lib/gcc/pic32mx/4.8.3/../../../../pic32mx/lib/libxcpp.a(xgetmem.o)
 .mdebug.abi32  0xa00001e0        0x0 /Applications/microchip/xc32/v1.40/bin/bin/../../lib/gcc/pic32mx/4.8.3/../../../../pic32mx/lib/libxcpp.a(strchr.o)
 .mdebug.abi32  0xa00001e0        0x0 /Applications/microchip/xc32/v1.40/bin/bin/../../lib/gcc/pic32mx/4.8.3/libgcc.a(_divdi3.o)
 .mdebug.abi32  0xa00001e0        0x0 /Applications/microchip/xc32/v1.40/bin/bin/../../lib/gcc/pic32mx/4.8.3/libgcc.a(_moddi3.o)
 .mdebug.abi32  0xa00001e0        0x0 /Applications/microchip/xc32/v1.40/bin/bin/../../lib/gcc/pic32mx/4.8.3/libgcc.a(floatunsisf.o)
 .mdebug.abi32  0xa00001e0        0x0 /Applications/microchip/xc32/v1.40/bin/bin/../../lib/gcc/pic32mx/4.8.3/libgcc.a(unwind-sjlj.o)
 .mdebug.abi32  0xa00001e0        0x0 /Applications/microchip/xc32/v1.40/bin/bin/../../lib/gcc/pic32mx/4.8.3/../../../../pic32mx/lib/libpic32.a(sbrk.o)
 .mdebug.abi32  0xa00001e0        0x0 /Applications/microchip/xc32/v1.40/bin/bin/../../lib/gcc/pic32mx/4.8.3/../../../../pic32mx/lib/libpic32.a(default-bootstrap-exception-handler.o)
 .mdebug.abi32  0xa00001e0        0x0 /Applications/microchip/xc32/v1.40/bin/bin/../../lib/gcc/pic32mx/4.8.3/../../../../pic32mx/lib/libpic32.a(default-on-reset.o)
 .mdebug.abi32  0xa00001e0        0x0 /Applications/microchip/xc32/v1.40/bin/bin/../../lib/gcc/pic32mx/4.8.3/../../../../pic32mx/lib/libpic32.a(default-on-bootstrap.o)
 .mdebug.abi32  0xa00001e0        0x0 /Applications/microchip/xc32/v1.40/bin/bin/../../lib/gcc/pic32mx/4.8.3/../../../../pic32mx/lib/libpic32.a(_exit.o)
 .mdebug.abi32  0xa00001e0        0x0 /Applications/microchip/xc32/v1.40/bin/bin/../../lib/gcc/pic32mx/4.8.3/../../../../pic32mx/lib/libpic32.a(kill.o)
 .mdebug.abi32  0xa00001e0        0x0 /Applications/microchip/xc32/v1.40/bin/bin/../../lib/gcc/pic32mx/4.8.3/../../../../pic32mx/lib/libpic32.a(getpid.o)
 .mdebug.abi32  0xa00001e0        0x0 /Applications/microchip/xc32/v1.40/bin/bin/../../lib/gcc/pic32mx/4.8.3/../../../../pic32mx/lib/libpic32.a(errno.o)
 .mdebug.abi32  0xa00001e0        0x0 /Applications/microchip/xc32/v1.40/bin/bin/../../lib/gcc/pic32mx/4.8.3/../../../../pic32mx/lib/libpic32.a(default-general-exception-handler.o)
 .mdebug.abi32  0xa00001e0        0x0 /Applications/microchip/xc32/v1.40/bin/bin/../../lib/gcc/pic32mx/4.8.3/../../../../pic32mx/lib/libpic32.a(defaultinterrupt.o)
 .mdebug.abi32  0xa00001e0        0x0 /Applications/microchip/xc32/v1.40/bin/bin/../../lib/gcc/pic32mx/4.8.3/crtend.o

.mdebug.abiN32
 *(.mdebug.abiN32)

.mdebug.abi64
 *(.mdebug.abi64)

.mdebug.abiO64
 *(.mdebug.abiO64)

.mdebug.eabi32
 *(.mdebug.eabi32)

.mdebug.eabi64
 *(.mdebug.eabi64)

.gcc_compiled_long32
 *(.gcc_compiled_long32)

.gcc_compiled_long64
 *(.gcc_compiled_long64)

.stab
 *(.stab)

.stabstr
 *(.stabstr)

.stab.excl
 *(.stab.excl)

.stab.exclstr
 *(.stab.exclstr)

.stab.index
 *(.stab.index)

.stab.indexstr
 *(.stab.indexstr)

.comment        0x00000000       0x87
 *(.comment)
 .comment       0x00000000       0x3c /Applications/microchip/xc32/v1.40/bin/bin/../../lib/gcc/pic32mx/4.8.3/crtbegin.o
                                 0x3d (size before relaxing)
 .comment       0x00000000       0x3d build/default/production/main.o
 .comment       0x00000000       0x3d build/default/production/_ext/1360937237/A24LC512.o
 .comment       0x00000000       0x3d build/default/production/_ext/1360937237/AConfigurationBits.o
 .comment       0x00000000       0x3d build/default/production/_ext/1360937237/ACore.o
 .comment       0x00000000       0x3d build/default/production/_ext/1360937237/ADateTime.o
 .comment       0x00000000       0x3d build/default/production/_ext/1360937237/AErrorNotifier.o
 .comment       0x00000000       0x3d build/default/production/_ext/1360937237/AI2CDriver.o
 .comment       0x00000000       0x3d build/default/production/_ext/1360937237/AInterruptSource.o
 .comment       0x00000000       0x3d build/default/production/_ext/1360937237/ALcd.o
 .comment       0x00000000       0x3d build/default/production/_ext/1360937237/APCF8563.o
 .comment       0x00000000       0x3d build/default/production/_ext/1360937237/APorts.o
 .comment       0x00000000       0x3d build/default/production/_ext/1360937237/AString.o
 .comment       0x00000000       0x3d build/default/production/_ext/1360937237/ATime.o
 .comment       0x00000000       0x3d build/default/production/_ext/1360937237/ATimers.o
 .comment       0x00000000       0x3d build/default/production/_ext/1360937237/AUARTDriver.o
 .comment       0x00000000       0x3d build/default/production/_ext/1360937237/AESP8266.o
 .comment       0x00000000       0x3d build/default/production/_ext/1360937237/MTemp.o
 .comment       0x00000000       0x3d build/default/production/_ext/1360937237/AXbee.o
 .comment       0x00000000       0x3d /Applications/microchip/xc32/v1.40/bin/bin/../../lib/gcc/pic32mx/4.8.3/../../../../pic32mx/lib/libsupc++.a(class_type_info.o)
 .comment       0x00000000       0x3d /Applications/microchip/xc32/v1.40/bin/bin/../../lib/gcc/pic32mx/4.8.3/../../../../pic32mx/lib/libsupc++.a(eh_personality.o)
 .comment       0x00000000       0x3d /Applications/microchip/xc32/v1.40/bin/bin/../../lib/gcc/pic32mx/4.8.3/../../../../pic32mx/lib/libsupc++.a(eh_terminate.o)
 .comment       0x00000000       0x3d /Applications/microchip/xc32/v1.40/bin/bin/../../lib/gcc/pic32mx/4.8.3/../../../../pic32mx/lib/libsupc++.a(eh_throw.o)
 .comment       0x00000000       0x3d /Applications/microchip/xc32/v1.40/bin/bin/../../lib/gcc/pic32mx/4.8.3/../../../../pic32mx/lib/libsupc++.a(eh_unex_handler.o)
 .comment       0x00000000       0x3d /Applications/microchip/xc32/v1.40/bin/bin/../../lib/gcc/pic32mx/4.8.3/../../../../pic32mx/lib/libsupc++.a(si_class_type_info.o)
 .comment       0x00000000       0x3d /Applications/microchip/xc32/v1.40/bin/bin/../../lib/gcc/pic32mx/4.8.3/../../../../pic32mx/lib/libsupc++.a(tinfo.o)
 .comment       0x00000000       0x3d /Applications/microchip/xc32/v1.40/bin/bin/../../lib/gcc/pic32mx/4.8.3/../../../../pic32mx/lib/libsupc++.a(pure.o)
 .comment       0x00000000       0x3d /Applications/microchip/xc32/v1.40/bin/bin/../../lib/gcc/pic32mx/4.8.3/../../../../pic32mx/lib/libsupc++.a(eh_alloc.o)
 .comment       0x00000000       0x3d /Applications/microchip/xc32/v1.40/bin/bin/../../lib/gcc/pic32mx/4.8.3/../../../../pic32mx/lib/libsupc++.a(eh_call.o)
 .comment       0x00000000       0x3d /Applications/microchip/xc32/v1.40/bin/bin/../../lib/gcc/pic32mx/4.8.3/../../../../pic32mx/lib/libsupc++.a(eh_catch.o)
 .comment       0x00000000       0x3d /Applications/microchip/xc32/v1.40/bin/bin/../../lib/gcc/pic32mx/4.8.3/../../../../pic32mx/lib/libsupc++.a(eh_exception.o)
 .comment       0x00000000       0x3d /Applications/microchip/xc32/v1.40/bin/bin/../../lib/gcc/pic32mx/4.8.3/../../../../pic32mx/lib/libsupc++.a(eh_globals.o)
 .comment       0x00000000       0x3d /Applications/microchip/xc32/v1.40/bin/bin/../../lib/gcc/pic32mx/4.8.3/../../../../pic32mx/lib/libsupc++.a(eh_term_handler.o)
 .comment       0x00000000       0x3d /Applications/microchip/xc32/v1.40/bin/bin/../../lib/gcc/pic32mx/4.8.3/../../../../pic32mx/lib/libxcpp.a(abort.o)
 .comment       0x00000000       0x3d /Applications/microchip/xc32/v1.40/bin/bin/../../lib/gcc/pic32mx/4.8.3/../../../../pic32mx/lib/libxcpp.a(abs.o)
 .comment       0x00000000       0x3d /Applications/microchip/xc32/v1.40/bin/bin/../../lib/gcc/pic32mx/4.8.3/../../../../pic32mx/lib/libxcpp.a(exit.o)
 .comment       0x00000000       0x3d /Applications/microchip/xc32/v1.40/bin/bin/../../lib/gcc/pic32mx/4.8.3/../../../../pic32mx/lib/libxcpp.a(free.o)
 .comment       0x00000000       0x3d /Applications/microchip/xc32/v1.40/bin/bin/../../lib/gcc/pic32mx/4.8.3/../../../../pic32mx/lib/libxcpp.a(malloc.o)
 .comment       0x00000000       0x3d /Applications/microchip/xc32/v1.40/bin/bin/../../lib/gcc/pic32mx/4.8.3/../../../../pic32mx/lib/libxcpp.a(memcpy.o)
 .comment       0x00000000       0x3d /Applications/microchip/xc32/v1.40/bin/bin/../../lib/gcc/pic32mx/4.8.3/../../../../pic32mx/lib/libxcpp.a(memset.o)
 .comment       0x00000000       0x3d /Applications/microchip/xc32/v1.40/bin/bin/../../lib/gcc/pic32mx/4.8.3/../../../../pic32mx/lib/libxcpp.a(raise.o)
 .comment       0x00000000       0x3d /Applications/microchip/xc32/v1.40/bin/bin/../../lib/gcc/pic32mx/4.8.3/../../../../pic32mx/lib/libxcpp.a(round.o)
 .comment       0x00000000       0x3d /Applications/microchip/xc32/v1.40/bin/bin/../../lib/gcc/pic32mx/4.8.3/../../../../pic32mx/lib/libxcpp.a(strcmp.o)
 .comment       0x00000000       0x3d /Applications/microchip/xc32/v1.40/bin/bin/../../lib/gcc/pic32mx/4.8.3/../../../../pic32mx/lib/libxcpp.a(strlen.o)
 .comment       0x00000000       0x3d /Applications/microchip/xc32/v1.40/bin/bin/../../lib/gcc/pic32mx/4.8.3/../../../../pic32mx/lib/libxcpp.a(strstr.o)
 .comment       0x00000000       0x3d /Applications/microchip/xc32/v1.40/bin/bin/../../lib/gcc/pic32mx/4.8.3/../../../../pic32mx/lib/libxcpp.a(xdint.o)
 .comment       0x00000000       0x3d /Applications/microchip/xc32/v1.40/bin/bin/../../lib/gcc/pic32mx/4.8.3/../../../../pic32mx/lib/libxcpp.a(xexit.o)
 .comment       0x00000000       0x3d /Applications/microchip/xc32/v1.40/bin/bin/../../lib/gcc/pic32mx/4.8.3/../../../../pic32mx/lib/libxcpp.a(xgetmem.o)
 .comment       0x00000000       0x3d /Applications/microchip/xc32/v1.40/bin/bin/../../lib/gcc/pic32mx/4.8.3/../../../../pic32mx/lib/libxcpp.a(strchr.o)
 .comment       0x00000000       0x3d /Applications/microchip/xc32/v1.40/bin/bin/../../lib/gcc/pic32mx/4.8.3/libgcc.a(_divdi3.o)
 .comment       0x00000000       0x3d /Applications/microchip/xc32/v1.40/bin/bin/../../lib/gcc/pic32mx/4.8.3/libgcc.a(_moddi3.o)
 .comment       0x00000000       0x3d /Applications/microchip/xc32/v1.40/bin/bin/../../lib/gcc/pic32mx/4.8.3/libgcc.a(floatunsisf.o)
 .comment       0x00000000       0x3d /Applications/microchip/xc32/v1.40/bin/bin/../../lib/gcc/pic32mx/4.8.3/libgcc.a(unwind-sjlj.o)
 .comment       0x0000003c       0x4b /Applications/microchip/xc32/v1.40/bin/bin/../../lib/gcc/pic32mx/4.8.3/../../../../pic32mx/lib/libpic32.a(sbrk.o)
                                 0x88 (size before relaxing)
 .comment       0x00000000       0x3d /Applications/microchip/xc32/v1.40/bin/bin/../../lib/gcc/pic32mx/4.8.3/../../../../pic32mx/lib/libpic32.a(default-bootstrap-exception-handler.o)
 .comment       0x00000000       0x3d /Applications/microchip/xc32/v1.40/bin/bin/../../lib/gcc/pic32mx/4.8.3/../../../../pic32mx/lib/libpic32.a(default-on-reset.o)
 .comment       0x00000000       0x3d /Applications/microchip/xc32/v1.40/bin/bin/../../lib/gcc/pic32mx/4.8.3/../../../../pic32mx/lib/libpic32.a(default-on-bootstrap.o)
 .comment       0x00000000       0x3d /Applications/microchip/xc32/v1.40/bin/bin/../../lib/gcc/pic32mx/4.8.3/../../../../pic32mx/lib/libpic32.a(_exit.o)
 .comment       0x00000000       0x3d /Applications/microchip/xc32/v1.40/bin/bin/../../lib/gcc/pic32mx/4.8.3/../../../../pic32mx/lib/libpic32.a(kill.o)
 .comment       0x00000000       0x3d /Applications/microchip/xc32/v1.40/bin/bin/../../lib/gcc/pic32mx/4.8.3/../../../../pic32mx/lib/libpic32.a(getpid.o)
 .comment       0x00000000       0x3d /Applications/microchip/xc32/v1.40/bin/bin/../../lib/gcc/pic32mx/4.8.3/../../../../pic32mx/lib/libpic32.a(errno.o)
 .comment       0x00000000       0x3d /Applications/microchip/xc32/v1.40/bin/bin/../../lib/gcc/pic32mx/4.8.3/../../../../pic32mx/lib/libpic32.a(default-general-exception-handler.o)
 .comment       0x00000000       0x3d /Applications/microchip/xc32/v1.40/bin/bin/../../lib/gcc/pic32mx/4.8.3/../../../../pic32mx/lib/libpic32.a(defaultinterrupt.o)
 .comment       0x00000000       0x3d /Applications/microchip/xc32/v1.40/bin/bin/../../lib/gcc/pic32mx/4.8.3/crtend.o

.debug
 *(.debug)

.line
 *(.line)

.debug_srcinfo
 *(.debug_srcinfo)

.debug_sfnames
 *(.debug_sfnames)

.debug_aranges  0x00000000      0x738
 *(.debug_aranges)
 .debug_aranges
                0x00000000       0x20 build/default/production/main.o
 .debug_aranges
                0x00000020       0x20 build/default/production/_ext/1360937237/A24LC512.o
 .debug_aranges
                0x00000040       0x20 build/default/production/_ext/1360937237/ACore.o
 .debug_aranges
                0x00000060       0x20 build/default/production/_ext/1360937237/ADateTime.o
 .debug_aranges
                0x00000080       0x28 build/default/production/_ext/1360937237/AErrorNotifier.o
 .debug_aranges
                0x000000a8       0x30 build/default/production/_ext/1360937237/AI2CDriver.o
 .debug_aranges
                0x000000d8       0x28 build/default/production/_ext/1360937237/AInterruptSource.o
 .debug_aranges
                0x00000100       0x20 build/default/production/_ext/1360937237/ALcd.o
 .debug_aranges
                0x00000120       0x20 build/default/production/_ext/1360937237/APCF8563.o
 .debug_aranges
                0x00000140       0x48 build/default/production/_ext/1360937237/APorts.o
 .debug_aranges
                0x00000188       0xf8 build/default/production/_ext/1360937237/AString.o
 .debug_aranges
                0x00000280       0x20 build/default/production/_ext/1360937237/ATime.o
 .debug_aranges
                0x000002a0       0x40 build/default/production/_ext/1360937237/ATimers.o
 .debug_aranges
                0x000002e0       0x28 build/default/production/_ext/1360937237/AUARTDriver.o
 .debug_aranges
                0x00000308       0x20 build/default/production/_ext/1360937237/AESP8266.o
 .debug_aranges
                0x00000328       0x20 build/default/production/_ext/1360937237/MTemp.o
 .debug_aranges
                0x00000348       0x20 build/default/production/_ext/1360937237/AXbee.o
 .debug_aranges
                0x00000368       0x20 /Applications/microchip/xc32/v1.40/bin/bin/../../lib/gcc/pic32mx/4.8.3/../../../../pic32mx/lib/libxcpp.a(abort.o)
 .debug_aranges
                0x00000388       0x20 /Applications/microchip/xc32/v1.40/bin/bin/../../lib/gcc/pic32mx/4.8.3/../../../../pic32mx/lib/libxcpp.a(abs.o)
 .debug_aranges
                0x000003a8       0x30 /Applications/microchip/xc32/v1.40/bin/bin/../../lib/gcc/pic32mx/4.8.3/../../../../pic32mx/lib/libxcpp.a(exit.o)
 .debug_aranges
                0x000003d8       0x20 /Applications/microchip/xc32/v1.40/bin/bin/../../lib/gcc/pic32mx/4.8.3/../../../../pic32mx/lib/libxcpp.a(free.o)
 .debug_aranges
                0x000003f8       0x20 /Applications/microchip/xc32/v1.40/bin/bin/../../lib/gcc/pic32mx/4.8.3/../../../../pic32mx/lib/libxcpp.a(malloc.o)
 .debug_aranges
                0x00000418       0x20 /Applications/microchip/xc32/v1.40/bin/bin/../../lib/gcc/pic32mx/4.8.3/../../../../pic32mx/lib/libxcpp.a(memcpy.o)
 .debug_aranges
                0x00000438       0x20 /Applications/microchip/xc32/v1.40/bin/bin/../../lib/gcc/pic32mx/4.8.3/../../../../pic32mx/lib/libxcpp.a(memset.o)
 .debug_aranges
                0x00000458       0x20 /Applications/microchip/xc32/v1.40/bin/bin/../../lib/gcc/pic32mx/4.8.3/../../../../pic32mx/lib/libxcpp.a(raise.o)
 .debug_aranges
                0x00000478       0x20 /Applications/microchip/xc32/v1.40/bin/bin/../../lib/gcc/pic32mx/4.8.3/../../../../pic32mx/lib/libxcpp.a(round.o)
 .debug_aranges
                0x00000498       0x20 /Applications/microchip/xc32/v1.40/bin/bin/../../lib/gcc/pic32mx/4.8.3/../../../../pic32mx/lib/libxcpp.a(strcmp.o)
 .debug_aranges
                0x000004b8       0x20 /Applications/microchip/xc32/v1.40/bin/bin/../../lib/gcc/pic32mx/4.8.3/../../../../pic32mx/lib/libxcpp.a(strlen.o)
 .debug_aranges
                0x000004d8       0x20 /Applications/microchip/xc32/v1.40/bin/bin/../../lib/gcc/pic32mx/4.8.3/../../../../pic32mx/lib/libxcpp.a(strstr.o)
 .debug_aranges
                0x000004f8       0x20 /Applications/microchip/xc32/v1.40/bin/bin/../../lib/gcc/pic32mx/4.8.3/../../../../pic32mx/lib/libxcpp.a(xdint.o)
 .debug_aranges
                0x00000518       0x20 /Applications/microchip/xc32/v1.40/bin/bin/../../lib/gcc/pic32mx/4.8.3/../../../../pic32mx/lib/libxcpp.a(xexit.o)
 .debug_aranges
                0x00000538       0x20 /Applications/microchip/xc32/v1.40/bin/bin/../../lib/gcc/pic32mx/4.8.3/../../../../pic32mx/lib/libxcpp.a(xgetmem.o)
 .debug_aranges
                0x00000558       0x20 /Applications/microchip/xc32/v1.40/bin/bin/../../lib/gcc/pic32mx/4.8.3/../../../../pic32mx/lib/libxcpp.a(strchr.o)
 .debug_aranges
                0x00000578       0x20 /Applications/microchip/xc32/v1.40/bin/bin/../../lib/gcc/pic32mx/4.8.3/libgcc.a(_divdi3.o)
 .debug_aranges
                0x00000598       0x20 /Applications/microchip/xc32/v1.40/bin/bin/../../lib/gcc/pic32mx/4.8.3/libgcc.a(_moddi3.o)
 .debug_aranges
                0x000005b8       0x20 /Applications/microchip/xc32/v1.40/bin/bin/../../lib/gcc/pic32mx/4.8.3/libgcc.a(floatunsisf.o)
 .debug_aranges
                0x000005d8       0x20 /Applications/microchip/xc32/v1.40/bin/bin/../../lib/gcc/pic32mx/4.8.3/libgcc.a(unwind-sjlj.o)
 .debug_aranges
                0x000005f8       0x40 /Applications/microchip/xc32/v1.40/bin/bin/../../lib/gcc/pic32mx/4.8.3/../../../../pic32mx/lib/libpic32.a(sbrk.o)
 .debug_aranges
                0x00000638       0x20 /Applications/microchip/xc32/v1.40/bin/bin/../../lib/gcc/pic32mx/4.8.3/../../../../pic32mx/lib/libpic32.a(default-bootstrap-exception-handler.o)
 .debug_aranges
                0x00000658       0x20 /Applications/microchip/xc32/v1.40/bin/bin/../../lib/gcc/pic32mx/4.8.3/../../../../pic32mx/lib/libpic32.a(default-on-reset.o)
 .debug_aranges
                0x00000678       0x20 /Applications/microchip/xc32/v1.40/bin/bin/../../lib/gcc/pic32mx/4.8.3/../../../../pic32mx/lib/libpic32.a(default-on-bootstrap.o)
 .debug_aranges
                0x00000698       0x20 /Applications/microchip/xc32/v1.40/bin/bin/../../lib/gcc/pic32mx/4.8.3/../../../../pic32mx/lib/libpic32.a(_exit.o)
 .debug_aranges
                0x000006b8       0x20 /Applications/microchip/xc32/v1.40/bin/bin/../../lib/gcc/pic32mx/4.8.3/../../../../pic32mx/lib/libpic32.a(kill.o)
 .debug_aranges
                0x000006d8       0x20 /Applications/microchip/xc32/v1.40/bin/bin/../../lib/gcc/pic32mx/4.8.3/../../../../pic32mx/lib/libpic32.a(getpid.o)
 .debug_aranges
                0x000006f8       0x20 /Applications/microchip/xc32/v1.40/bin/bin/../../lib/gcc/pic32mx/4.8.3/../../../../pic32mx/lib/libpic32.a(default-general-exception-handler.o)
 .debug_aranges
                0x00000718       0x20 /Applications/microchip/xc32/v1.40/bin/bin/../../lib/gcc/pic32mx/4.8.3/../../../../pic32mx/lib/libpic32.a(defaultinterrupt.o)

.debug_pubnames
 *(.debug_pubnames)

.debug_info     0x00000000    0x33275
 *(.debug_info .gnu.linkonce.wi.*)
 .debug_info    0x00000000     0x3289 build/default/production/main.o
 .debug_info    0x00003289     0x2355 build/default/production/_ext/1360937237/A24LC512.o
 .debug_info    0x000055de     0x458d build/default/production/_ext/1360937237/ACore.o
 .debug_info    0x00009b6b     0x13da build/default/production/_ext/1360937237/ADateTime.o
 .debug_info    0x0000af45      0x613 build/default/production/_ext/1360937237/AErrorNotifier.o
 .debug_info    0x0000b558     0x34f5 build/default/production/_ext/1360937237/AI2CDriver.o
 .debug_info    0x0000ea4d      0xcaf build/default/production/_ext/1360937237/AInterruptSource.o
 .debug_info    0x0000f6fc     0x2587 build/default/production/_ext/1360937237/ALcd.o
 .debug_info    0x00011c83     0x2f93 build/default/production/_ext/1360937237/APCF8563.o
 .debug_info    0x00014c16     0x1dee build/default/production/_ext/1360937237/APorts.o
 .debug_info    0x00016a04     0x79c8 build/default/production/_ext/1360937237/AString.o
 .debug_info    0x0001e3cc     0x1e5e build/default/production/_ext/1360937237/ATime.o
 .debug_info    0x0002022a     0x4b87 build/default/production/_ext/1360937237/ATimers.o
 .debug_info    0x00024db1     0x205c build/default/production/_ext/1360937237/AUARTDriver.o
 .debug_info    0x00026e0d     0x3549 build/default/production/_ext/1360937237/AESP8266.o
 .debug_info    0x0002a356     0x415c build/default/production/_ext/1360937237/MTemp.o
 .debug_info    0x0002e4b2     0x1957 build/default/production/_ext/1360937237/AXbee.o
 .debug_info    0x0002fe09       0xa5 /Applications/microchip/xc32/v1.40/bin/bin/../../lib/gcc/pic32mx/4.8.3/../../../../pic32mx/lib/libxcpp.a(abort.o)
 .debug_info    0x0002feae       0xa1 /Applications/microchip/xc32/v1.40/bin/bin/../../lib/gcc/pic32mx/4.8.3/../../../../pic32mx/lib/libxcpp.a(abs.o)
 .debug_info    0x0002ff4f       0xd3 /Applications/microchip/xc32/v1.40/bin/bin/../../lib/gcc/pic32mx/4.8.3/../../../../pic32mx/lib/libxcpp.a(exit.o)
 .debug_info    0x00030022       0xa3 /Applications/microchip/xc32/v1.40/bin/bin/../../lib/gcc/pic32mx/4.8.3/../../../../pic32mx/lib/libxcpp.a(free.o)
 .debug_info    0x000300c5       0xb3 /Applications/microchip/xc32/v1.40/bin/bin/../../lib/gcc/pic32mx/4.8.3/../../../../pic32mx/lib/libxcpp.a(malloc.o)
 .debug_info    0x00030178       0xa7 /Applications/microchip/xc32/v1.40/bin/bin/../../lib/gcc/pic32mx/4.8.3/../../../../pic32mx/lib/libxcpp.a(memcpy.o)
 .debug_info    0x0003021f       0xa7 /Applications/microchip/xc32/v1.40/bin/bin/../../lib/gcc/pic32mx/4.8.3/../../../../pic32mx/lib/libxcpp.a(memset.o)
 .debug_info    0x000302c6       0xa5 /Applications/microchip/xc32/v1.40/bin/bin/../../lib/gcc/pic32mx/4.8.3/../../../../pic32mx/lib/libxcpp.a(raise.o)
 .debug_info    0x0003036b       0xa5 /Applications/microchip/xc32/v1.40/bin/bin/../../lib/gcc/pic32mx/4.8.3/../../../../pic32mx/lib/libxcpp.a(round.o)
 .debug_info    0x00030410       0xa7 /Applications/microchip/xc32/v1.40/bin/bin/../../lib/gcc/pic32mx/4.8.3/../../../../pic32mx/lib/libxcpp.a(strcmp.o)
 .debug_info    0x000304b7       0xa7 /Applications/microchip/xc32/v1.40/bin/bin/../../lib/gcc/pic32mx/4.8.3/../../../../pic32mx/lib/libxcpp.a(strlen.o)
 .debug_info    0x0003055e       0xa7 /Applications/microchip/xc32/v1.40/bin/bin/../../lib/gcc/pic32mx/4.8.3/../../../../pic32mx/lib/libxcpp.a(strstr.o)
 .debug_info    0x00030605       0xa5 /Applications/microchip/xc32/v1.40/bin/bin/../../lib/gcc/pic32mx/4.8.3/../../../../pic32mx/lib/libxcpp.a(xdint.o)
 .debug_info    0x000306aa       0xa5 /Applications/microchip/xc32/v1.40/bin/bin/../../lib/gcc/pic32mx/4.8.3/../../../../pic32mx/lib/libxcpp.a(xexit.o)
 .debug_info    0x0003074f       0xa9 /Applications/microchip/xc32/v1.40/bin/bin/../../lib/gcc/pic32mx/4.8.3/../../../../pic32mx/lib/libxcpp.a(xgetmem.o)
 .debug_info    0x000307f8       0xa7 /Applications/microchip/xc32/v1.40/bin/bin/../../lib/gcc/pic32mx/4.8.3/../../../../pic32mx/lib/libxcpp.a(strchr.o)
 .debug_info    0x0003089f      0x783 /Applications/microchip/xc32/v1.40/bin/bin/../../lib/gcc/pic32mx/4.8.3/libgcc.a(_divdi3.o)
 .debug_info    0x00031022      0x7a8 /Applications/microchip/xc32/v1.40/bin/bin/../../lib/gcc/pic32mx/4.8.3/libgcc.a(_moddi3.o)
 .debug_info    0x000317ca      0x11f /Applications/microchip/xc32/v1.40/bin/bin/../../lib/gcc/pic32mx/4.8.3/libgcc.a(floatunsisf.o)
 .debug_info    0x000318e9     0x124d /Applications/microchip/xc32/v1.40/bin/bin/../../lib/gcc/pic32mx/4.8.3/libgcc.a(unwind-sjlj.o)
 .debug_info    0x00032b36      0x11a /Applications/microchip/xc32/v1.40/bin/bin/../../lib/gcc/pic32mx/4.8.3/../../../../pic32mx/lib/libpic32.a(sbrk.o)
 .debug_info    0x00032c50       0xe3 /Applications/microchip/xc32/v1.40/bin/bin/../../lib/gcc/pic32mx/4.8.3/../../../../pic32mx/lib/libpic32.a(default-bootstrap-exception-handler.o)
 .debug_info    0x00032d33       0xbd /Applications/microchip/xc32/v1.40/bin/bin/../../lib/gcc/pic32mx/4.8.3/../../../../pic32mx/lib/libpic32.a(default-on-reset.o)
 .debug_info    0x00032df0       0xc5 /Applications/microchip/xc32/v1.40/bin/bin/../../lib/gcc/pic32mx/4.8.3/../../../../pic32mx/lib/libpic32.a(default-on-bootstrap.o)
 .debug_info    0x00032eb5       0xae /Applications/microchip/xc32/v1.40/bin/bin/../../lib/gcc/pic32mx/4.8.3/../../../../pic32mx/lib/libpic32.a(_exit.o)
 .debug_info    0x00032f63       0xac /Applications/microchip/xc32/v1.40/bin/bin/../../lib/gcc/pic32mx/4.8.3/../../../../pic32mx/lib/libpic32.a(kill.o)
 .debug_info    0x0003300f       0xb0 /Applications/microchip/xc32/v1.40/bin/bin/../../lib/gcc/pic32mx/4.8.3/../../../../pic32mx/lib/libpic32.a(getpid.o)
 .debug_info    0x000330bf       0xdf /Applications/microchip/xc32/v1.40/bin/bin/../../lib/gcc/pic32mx/4.8.3/../../../../pic32mx/lib/libpic32.a(default-general-exception-handler.o)
 .debug_info    0x0003319e       0xd7 /Applications/microchip/xc32/v1.40/bin/bin/../../lib/gcc/pic32mx/4.8.3/../../../../pic32mx/lib/libpic32.a(defaultinterrupt.o)

.debug_abbrev   0x00000000     0x484a
 *(.debug_abbrev)
 .debug_abbrev  0x00000000      0x374 build/default/production/main.o
 .debug_abbrev  0x00000374      0x315 build/default/production/_ext/1360937237/A24LC512.o
 .debug_abbrev  0x00000689      0x5da build/default/production/_ext/1360937237/ACore.o
 .debug_abbrev  0x00000c63      0x2b1 build/default/production/_ext/1360937237/ADateTime.o
 .debug_abbrev  0x00000f14      0x1d5 build/default/production/_ext/1360937237/AErrorNotifier.o
 .debug_abbrev  0x000010e9      0x35c build/default/production/_ext/1360937237/AI2CDriver.o
 .debug_abbrev  0x00001445      0x243 build/default/production/_ext/1360937237/AInterruptSource.o
 .debug_abbrev  0x00001688      0x38a build/default/production/_ext/1360937237/ALcd.o
 .debug_abbrev  0x00001a12      0x376 build/default/production/_ext/1360937237/APCF8563.o
 .debug_abbrev  0x00001d88      0x2d3 build/default/production/_ext/1360937237/APorts.o
 .debug_abbrev  0x0000205b      0x77d build/default/production/_ext/1360937237/AString.o
 .debug_abbrev  0x000027d8      0x27e build/default/production/_ext/1360937237/ATime.o
 .debug_abbrev  0x00002a56      0x53b build/default/production/_ext/1360937237/ATimers.o
 .debug_abbrev  0x00002f91      0x3cc build/default/production/_ext/1360937237/AUARTDriver.o
 .debug_abbrev  0x0000335d      0x3aa build/default/production/_ext/1360937237/AESP8266.o
 .debug_abbrev  0x00003707      0x3b8 build/default/production/_ext/1360937237/MTemp.o
 .debug_abbrev  0x00003abf      0x2c6 build/default/production/_ext/1360937237/AXbee.o
 .debug_abbrev  0x00003d85       0x28 /Applications/microchip/xc32/v1.40/bin/bin/../../lib/gcc/pic32mx/4.8.3/../../../../pic32mx/lib/libxcpp.a(abort.o)
 .debug_abbrev  0x00003dad       0x28 /Applications/microchip/xc32/v1.40/bin/bin/../../lib/gcc/pic32mx/4.8.3/../../../../pic32mx/lib/libxcpp.a(abs.o)
 .debug_abbrev  0x00003dd5       0x28 /Applications/microchip/xc32/v1.40/bin/bin/../../lib/gcc/pic32mx/4.8.3/../../../../pic32mx/lib/libxcpp.a(exit.o)
 .debug_abbrev  0x00003dfd       0x28 /Applications/microchip/xc32/v1.40/bin/bin/../../lib/gcc/pic32mx/4.8.3/../../../../pic32mx/lib/libxcpp.a(free.o)
 .debug_abbrev  0x00003e25       0x35 /Applications/microchip/xc32/v1.40/bin/bin/../../lib/gcc/pic32mx/4.8.3/../../../../pic32mx/lib/libxcpp.a(malloc.o)
 .debug_abbrev  0x00003e5a       0x28 /Applications/microchip/xc32/v1.40/bin/bin/../../lib/gcc/pic32mx/4.8.3/../../../../pic32mx/lib/libxcpp.a(memcpy.o)
 .debug_abbrev  0x00003e82       0x28 /Applications/microchip/xc32/v1.40/bin/bin/../../lib/gcc/pic32mx/4.8.3/../../../../pic32mx/lib/libxcpp.a(memset.o)
 .debug_abbrev  0x00003eaa       0x28 /Applications/microchip/xc32/v1.40/bin/bin/../../lib/gcc/pic32mx/4.8.3/../../../../pic32mx/lib/libxcpp.a(raise.o)
 .debug_abbrev  0x00003ed2       0x28 /Applications/microchip/xc32/v1.40/bin/bin/../../lib/gcc/pic32mx/4.8.3/../../../../pic32mx/lib/libxcpp.a(round.o)
 .debug_abbrev  0x00003efa       0x28 /Applications/microchip/xc32/v1.40/bin/bin/../../lib/gcc/pic32mx/4.8.3/../../../../pic32mx/lib/libxcpp.a(strcmp.o)
 .debug_abbrev  0x00003f22       0x28 /Applications/microchip/xc32/v1.40/bin/bin/../../lib/gcc/pic32mx/4.8.3/../../../../pic32mx/lib/libxcpp.a(strlen.o)
 .debug_abbrev  0x00003f4a       0x28 /Applications/microchip/xc32/v1.40/bin/bin/../../lib/gcc/pic32mx/4.8.3/../../../../pic32mx/lib/libxcpp.a(strstr.o)
 .debug_abbrev  0x00003f72       0x28 /Applications/microchip/xc32/v1.40/bin/bin/../../lib/gcc/pic32mx/4.8.3/../../../../pic32mx/lib/libxcpp.a(xdint.o)
 .debug_abbrev  0x00003f9a       0x28 /Applications/microchip/xc32/v1.40/bin/bin/../../lib/gcc/pic32mx/4.8.3/../../../../pic32mx/lib/libxcpp.a(xexit.o)
 .debug_abbrev  0x00003fc2       0x28 /Applications/microchip/xc32/v1.40/bin/bin/../../lib/gcc/pic32mx/4.8.3/../../../../pic32mx/lib/libxcpp.a(xgetmem.o)
 .debug_abbrev  0x00003fea       0x28 /Applications/microchip/xc32/v1.40/bin/bin/../../lib/gcc/pic32mx/4.8.3/../../../../pic32mx/lib/libxcpp.a(strchr.o)
 .debug_abbrev  0x00004012      0x13e /Applications/microchip/xc32/v1.40/bin/bin/../../lib/gcc/pic32mx/4.8.3/libgcc.a(_divdi3.o)
 .debug_abbrev  0x00004150      0x145 /Applications/microchip/xc32/v1.40/bin/bin/../../lib/gcc/pic32mx/4.8.3/libgcc.a(_moddi3.o)
 .debug_abbrev  0x00004295       0x62 /Applications/microchip/xc32/v1.40/bin/bin/../../lib/gcc/pic32mx/4.8.3/libgcc.a(floatunsisf.o)
 .debug_abbrev  0x000042f7      0x3bf /Applications/microchip/xc32/v1.40/bin/bin/../../lib/gcc/pic32mx/4.8.3/libgcc.a(unwind-sjlj.o)
 .debug_abbrev  0x000046b6       0x54 /Applications/microchip/xc32/v1.40/bin/bin/../../lib/gcc/pic32mx/4.8.3/../../../../pic32mx/lib/libpic32.a(sbrk.o)
 .debug_abbrev  0x0000470a       0x28 /Applications/microchip/xc32/v1.40/bin/bin/../../lib/gcc/pic32mx/4.8.3/../../../../pic32mx/lib/libpic32.a(default-bootstrap-exception-handler.o)
 .debug_abbrev  0x00004732       0x28 /Applications/microchip/xc32/v1.40/bin/bin/../../lib/gcc/pic32mx/4.8.3/../../../../pic32mx/lib/libpic32.a(default-on-reset.o)
 .debug_abbrev  0x0000475a       0x28 /Applications/microchip/xc32/v1.40/bin/bin/../../lib/gcc/pic32mx/4.8.3/../../../../pic32mx/lib/libpic32.a(default-on-bootstrap.o)
 .debug_abbrev  0x00004782       0x28 /Applications/microchip/xc32/v1.40/bin/bin/../../lib/gcc/pic32mx/4.8.3/../../../../pic32mx/lib/libpic32.a(_exit.o)
 .debug_abbrev  0x000047aa       0x28 /Applications/microchip/xc32/v1.40/bin/bin/../../lib/gcc/pic32mx/4.8.3/../../../../pic32mx/lib/libpic32.a(kill.o)
 .debug_abbrev  0x000047d2       0x28 /Applications/microchip/xc32/v1.40/bin/bin/../../lib/gcc/pic32mx/4.8.3/../../../../pic32mx/lib/libpic32.a(getpid.o)
 .debug_abbrev  0x000047fa       0x28 /Applications/microchip/xc32/v1.40/bin/bin/../../lib/gcc/pic32mx/4.8.3/../../../../pic32mx/lib/libpic32.a(default-general-exception-handler.o)
 .debug_abbrev  0x00004822       0x28 /Applications/microchip/xc32/v1.40/bin/bin/../../lib/gcc/pic32mx/4.8.3/../../../../pic32mx/lib/libpic32.a(defaultinterrupt.o)

.debug_line     0x00000000     0x3c91
 *(.debug_line)
 .debug_line    0x00000000      0x1cc build/default/production/main.o
 .debug_line    0x000001cc      0x1b4 build/default/production/_ext/1360937237/A24LC512.o
 .debug_line    0x00000380        0x0 build/default/production/_ext/1360937237/AConfigurationBits.o
 .debug_line    0x00000380      0x311 build/default/production/_ext/1360937237/ACore.o
 .debug_line    0x00000691      0x1d3 build/default/production/_ext/1360937237/ADateTime.o
 .debug_line    0x00000864       0xca build/default/production/_ext/1360937237/AErrorNotifier.o
 .debug_line    0x0000092e      0x222 build/default/production/_ext/1360937237/AI2CDriver.o
 .debug_line    0x00000b50      0x10a build/default/production/_ext/1360937237/AInterruptSource.o
 .debug_line    0x00000c5a      0x21d build/default/production/_ext/1360937237/ALcd.o
 .debug_line    0x00000e77      0x265 build/default/production/_ext/1360937237/APCF8563.o
 .debug_line    0x000010dc      0x21b build/default/production/_ext/1360937237/APorts.o
 .debug_line    0x000012f7      0x994 build/default/production/_ext/1360937237/AString.o
 .debug_line    0x00001c8b      0x26f build/default/production/_ext/1360937237/ATime.o
 .debug_line    0x00001efa      0x34b build/default/production/_ext/1360937237/ATimers.o
 .debug_line    0x00002245      0x266 build/default/production/_ext/1360937237/AUARTDriver.o
 .debug_line    0x000024ab      0x464 build/default/production/_ext/1360937237/AESP8266.o
 .debug_line    0x0000290f      0x1d5 build/default/production/_ext/1360937237/MTemp.o
 .debug_line    0x00002ae4      0x151 build/default/production/_ext/1360937237/AXbee.o
 .debug_line    0x00002c35       0x70 /Applications/microchip/xc32/v1.40/bin/bin/../../lib/gcc/pic32mx/4.8.3/../../../../pic32mx/lib/libxcpp.a(abort.o)
 .debug_line    0x00002ca5       0x6e /Applications/microchip/xc32/v1.40/bin/bin/../../lib/gcc/pic32mx/4.8.3/../../../../pic32mx/lib/libxcpp.a(abs.o)
 .debug_line    0x00002d13       0x6f /Applications/microchip/xc32/v1.40/bin/bin/../../lib/gcc/pic32mx/4.8.3/../../../../pic32mx/lib/libxcpp.a(exit.o)
 .debug_line    0x00002d82       0x6f /Applications/microchip/xc32/v1.40/bin/bin/../../lib/gcc/pic32mx/4.8.3/../../../../pic32mx/lib/libxcpp.a(free.o)
 .debug_line    0x00002df1       0x71 /Applications/microchip/xc32/v1.40/bin/bin/../../lib/gcc/pic32mx/4.8.3/../../../../pic32mx/lib/libxcpp.a(malloc.o)
 .debug_line    0x00002e62       0x71 /Applications/microchip/xc32/v1.40/bin/bin/../../lib/gcc/pic32mx/4.8.3/../../../../pic32mx/lib/libxcpp.a(memcpy.o)
 .debug_line    0x00002ed3       0x71 /Applications/microchip/xc32/v1.40/bin/bin/../../lib/gcc/pic32mx/4.8.3/../../../../pic32mx/lib/libxcpp.a(memset.o)
 .debug_line    0x00002f44       0x70 /Applications/microchip/xc32/v1.40/bin/bin/../../lib/gcc/pic32mx/4.8.3/../../../../pic32mx/lib/libxcpp.a(raise.o)
 .debug_line    0x00002fb4       0x72 /Applications/microchip/xc32/v1.40/bin/bin/../../lib/gcc/pic32mx/4.8.3/../../../../pic32mx/lib/libxcpp.a(round.o)
 .debug_line    0x00003026       0x71 /Applications/microchip/xc32/v1.40/bin/bin/../../lib/gcc/pic32mx/4.8.3/../../../../pic32mx/lib/libxcpp.a(strcmp.o)
 .debug_line    0x00003097       0x71 /Applications/microchip/xc32/v1.40/bin/bin/../../lib/gcc/pic32mx/4.8.3/../../../../pic32mx/lib/libxcpp.a(strlen.o)
 .debug_line    0x00003108       0x71 /Applications/microchip/xc32/v1.40/bin/bin/../../lib/gcc/pic32mx/4.8.3/../../../../pic32mx/lib/libxcpp.a(strstr.o)
 .debug_line    0x00003179       0x70 /Applications/microchip/xc32/v1.40/bin/bin/../../lib/gcc/pic32mx/4.8.3/../../../../pic32mx/lib/libxcpp.a(xdint.o)
 .debug_line    0x000031e9       0x70 /Applications/microchip/xc32/v1.40/bin/bin/../../lib/gcc/pic32mx/4.8.3/../../../../pic32mx/lib/libxcpp.a(xexit.o)
 .debug_line    0x00003259       0x72 /Applications/microchip/xc32/v1.40/bin/bin/../../lib/gcc/pic32mx/4.8.3/../../../../pic32mx/lib/libxcpp.a(xgetmem.o)
 .debug_line    0x000032cb       0x71 /Applications/microchip/xc32/v1.40/bin/bin/../../lib/gcc/pic32mx/4.8.3/../../../../pic32mx/lib/libxcpp.a(strchr.o)
 .debug_line    0x0000333c       0xf5 /Applications/microchip/xc32/v1.40/bin/bin/../../lib/gcc/pic32mx/4.8.3/libgcc.a(_divdi3.o)
 .debug_line    0x00003431      0x106 /Applications/microchip/xc32/v1.40/bin/bin/../../lib/gcc/pic32mx/4.8.3/libgcc.a(_moddi3.o)
 .debug_line    0x00003537       0x8a /Applications/microchip/xc32/v1.40/bin/bin/../../lib/gcc/pic32mx/4.8.3/libgcc.a(floatunsisf.o)
 .debug_line    0x000035c1      0x21f /Applications/microchip/xc32/v1.40/bin/bin/../../lib/gcc/pic32mx/4.8.3/libgcc.a(unwind-sjlj.o)
 .debug_line    0x000037e0       0x78 /Applications/microchip/xc32/v1.40/bin/bin/../../lib/gcc/pic32mx/4.8.3/../../../../pic32mx/lib/libpic32.a(sbrk.o)
 .debug_line    0x00003858       0x97 /Applications/microchip/xc32/v1.40/bin/bin/../../lib/gcc/pic32mx/4.8.3/../../../../pic32mx/lib/libpic32.a(default-bootstrap-exception-handler.o)
 .debug_line    0x000038ef       0x84 /Applications/microchip/xc32/v1.40/bin/bin/../../lib/gcc/pic32mx/4.8.3/../../../../pic32mx/lib/libpic32.a(default-on-reset.o)
 .debug_line    0x00003973       0x88 /Applications/microchip/xc32/v1.40/bin/bin/../../lib/gcc/pic32mx/4.8.3/../../../../pic32mx/lib/libpic32.a(default-on-bootstrap.o)
 .debug_line    0x000039fb       0x79 /Applications/microchip/xc32/v1.40/bin/bin/../../lib/gcc/pic32mx/4.8.3/../../../../pic32mx/lib/libpic32.a(_exit.o)
 .debug_line    0x00003a74       0x78 /Applications/microchip/xc32/v1.40/bin/bin/../../lib/gcc/pic32mx/4.8.3/../../../../pic32mx/lib/libpic32.a(kill.o)
 .debug_line    0x00003aec       0x7a /Applications/microchip/xc32/v1.40/bin/bin/../../lib/gcc/pic32mx/4.8.3/../../../../pic32mx/lib/libpic32.a(getpid.o)
 .debug_line    0x00003b66        0x0 /Applications/microchip/xc32/v1.40/bin/bin/../../lib/gcc/pic32mx/4.8.3/../../../../pic32mx/lib/libpic32.a(errno.o)
 .debug_line    0x00003b66       0x95 /Applications/microchip/xc32/v1.40/bin/bin/../../lib/gcc/pic32mx/4.8.3/../../../../pic32mx/lib/libpic32.a(default-general-exception-handler.o)
 .debug_line    0x00003bfb       0x96 /Applications/microchip/xc32/v1.40/bin/bin/../../lib/gcc/pic32mx/4.8.3/../../../../pic32mx/lib/libpic32.a(defaultinterrupt.o)

.debug_frame    0x00000000     0x38a0
 *(.debug_frame)
 .debug_frame   0x00000000       0x98 build/default/production/main.o
 .debug_frame   0x00000098       0xb4 build/default/production/_ext/1360937237/A24LC512.o
 .debug_frame   0x0000014c      0x490 build/default/production/_ext/1360937237/ACore.o
 .debug_frame   0x000005dc      0x200 build/default/production/_ext/1360937237/ADateTime.o
 .debug_frame   0x000007dc       0xa0 build/default/production/_ext/1360937237/AErrorNotifier.o
 .debug_frame   0x0000087c      0x1e8 build/default/production/_ext/1360937237/AI2CDriver.o
 .debug_frame   0x00000a64       0xc4 build/default/production/_ext/1360937237/AInterruptSource.o
 .debug_frame   0x00000b28      0x224 build/default/production/_ext/1360937237/ALcd.o
 .debug_frame   0x00000d4c      0x23c build/default/production/_ext/1360937237/APCF8563.o
 .debug_frame   0x00000f88      0x54c build/default/production/_ext/1360937237/APorts.o
 .debug_frame   0x000014d4      0xbe8 build/default/production/_ext/1360937237/AString.o
 .debug_frame   0x000020bc      0x714 build/default/production/_ext/1360937237/ATime.o
 .debug_frame   0x000027d0      0x3c0 build/default/production/_ext/1360937237/ATimers.o
 .debug_frame   0x00002b90      0x280 build/default/production/_ext/1360937237/AUARTDriver.o
 .debug_frame   0x00002e10      0x374 build/default/production/_ext/1360937237/AESP8266.o
 .debug_frame   0x00003184       0x84 build/default/production/_ext/1360937237/MTemp.o
 .debug_frame   0x00003208       0x30 build/default/production/_ext/1360937237/AXbee.o
 .debug_frame   0x00003238       0x28 /Applications/microchip/xc32/v1.40/bin/bin/../../lib/gcc/pic32mx/4.8.3/../../../../pic32mx/lib/libxcpp.a(abort.o)
 .debug_frame   0x00003260       0x20 /Applications/microchip/xc32/v1.40/bin/bin/../../lib/gcc/pic32mx/4.8.3/../../../../pic32mx/lib/libxcpp.a(abs.o)
 .debug_frame   0x00003280       0x68 /Applications/microchip/xc32/v1.40/bin/bin/../../lib/gcc/pic32mx/4.8.3/../../../../pic32mx/lib/libxcpp.a(exit.o)
 .debug_frame   0x000032e8       0x20 /Applications/microchip/xc32/v1.40/bin/bin/../../lib/gcc/pic32mx/4.8.3/../../../../pic32mx/lib/libxcpp.a(free.o)
 .debug_frame   0x00003308       0x30 /Applications/microchip/xc32/v1.40/bin/bin/../../lib/gcc/pic32mx/4.8.3/../../../../pic32mx/lib/libxcpp.a(malloc.o)
 .debug_frame   0x00003338       0x20 /Applications/microchip/xc32/v1.40/bin/bin/../../lib/gcc/pic32mx/4.8.3/../../../../pic32mx/lib/libxcpp.a(memcpy.o)
 .debug_frame   0x00003358       0x20 /Applications/microchip/xc32/v1.40/bin/bin/../../lib/gcc/pic32mx/4.8.3/../../../../pic32mx/lib/libxcpp.a(memset.o)
 .debug_frame   0x00003378       0x28 /Applications/microchip/xc32/v1.40/bin/bin/../../lib/gcc/pic32mx/4.8.3/../../../../pic32mx/lib/libxcpp.a(raise.o)
 .debug_frame   0x000033a0       0x28 /Applications/microchip/xc32/v1.40/bin/bin/../../lib/gcc/pic32mx/4.8.3/../../../../pic32mx/lib/libxcpp.a(round.o)
 .debug_frame   0x000033c8       0x20 /Applications/microchip/xc32/v1.40/bin/bin/../../lib/gcc/pic32mx/4.8.3/../../../../pic32mx/lib/libxcpp.a(strcmp.o)
 .debug_frame   0x000033e8       0x20 /Applications/microchip/xc32/v1.40/bin/bin/../../lib/gcc/pic32mx/4.8.3/../../../../pic32mx/lib/libxcpp.a(strlen.o)
 .debug_frame   0x00003408       0x28 /Applications/microchip/xc32/v1.40/bin/bin/../../lib/gcc/pic32mx/4.8.3/../../../../pic32mx/lib/libxcpp.a(strstr.o)
 .debug_frame   0x00003430       0x20 /Applications/microchip/xc32/v1.40/bin/bin/../../lib/gcc/pic32mx/4.8.3/../../../../pic32mx/lib/libxcpp.a(xdint.o)
 .debug_frame   0x00003450       0x28 /Applications/microchip/xc32/v1.40/bin/bin/../../lib/gcc/pic32mx/4.8.3/../../../../pic32mx/lib/libxcpp.a(xexit.o)
 .debug_frame   0x00003478       0x2c /Applications/microchip/xc32/v1.40/bin/bin/../../lib/gcc/pic32mx/4.8.3/../../../../pic32mx/lib/libxcpp.a(xgetmem.o)
 .debug_frame   0x000034a4       0x20 /Applications/microchip/xc32/v1.40/bin/bin/../../lib/gcc/pic32mx/4.8.3/../../../../pic32mx/lib/libxcpp.a(strchr.o)
 .debug_frame   0x000034c4       0x20 /Applications/microchip/xc32/v1.40/bin/bin/../../lib/gcc/pic32mx/4.8.3/libgcc.a(_divdi3.o)
 .debug_frame   0x000034e4       0x20 /Applications/microchip/xc32/v1.40/bin/bin/../../lib/gcc/pic32mx/4.8.3/libgcc.a(_moddi3.o)
 .debug_frame   0x00003504       0x28 /Applications/microchip/xc32/v1.40/bin/bin/../../lib/gcc/pic32mx/4.8.3/libgcc.a(floatunsisf.o)
 .debug_frame   0x0000352c      0x1d8 /Applications/microchip/xc32/v1.40/bin/bin/../../lib/gcc/pic32mx/4.8.3/libgcc.a(unwind-sjlj.o)
 .debug_frame   0x00003704       0x84 /Applications/microchip/xc32/v1.40/bin/bin/../../lib/gcc/pic32mx/4.8.3/../../../../pic32mx/lib/libpic32.a(sbrk.o)
 .debug_frame   0x00003788       0x2c /Applications/microchip/xc32/v1.40/bin/bin/../../lib/gcc/pic32mx/4.8.3/../../../../pic32mx/lib/libpic32.a(default-bootstrap-exception-handler.o)
 .debug_frame   0x000037b4       0x20 /Applications/microchip/xc32/v1.40/bin/bin/../../lib/gcc/pic32mx/4.8.3/../../../../pic32mx/lib/libpic32.a(default-on-reset.o)
 .debug_frame   0x000037d4       0x20 /Applications/microchip/xc32/v1.40/bin/bin/../../lib/gcc/pic32mx/4.8.3/../../../../pic32mx/lib/libpic32.a(default-on-bootstrap.o)
 .debug_frame   0x000037f4       0x20 /Applications/microchip/xc32/v1.40/bin/bin/../../lib/gcc/pic32mx/4.8.3/../../../../pic32mx/lib/libpic32.a(_exit.o)
 .debug_frame   0x00003814       0x20 /Applications/microchip/xc32/v1.40/bin/bin/../../lib/gcc/pic32mx/4.8.3/../../../../pic32mx/lib/libpic32.a(kill.o)
 .debug_frame   0x00003834       0x20 /Applications/microchip/xc32/v1.40/bin/bin/../../lib/gcc/pic32mx/4.8.3/../../../../pic32mx/lib/libpic32.a(getpid.o)
 .debug_frame   0x00003854       0x2c /Applications/microchip/xc32/v1.40/bin/bin/../../lib/gcc/pic32mx/4.8.3/../../../../pic32mx/lib/libpic32.a(default-general-exception-handler.o)
 .debug_frame   0x00003880       0x20 /Applications/microchip/xc32/v1.40/bin/bin/../../lib/gcc/pic32mx/4.8.3/../../../../pic32mx/lib/libpic32.a(defaultinterrupt.o)

.debug_str      0x00000000      0x8ee
 *(.debug_str)
 .debug_str     0x00000000       0x84 build/default/production/main.o
 .debug_str     0x00000084       0x44 build/default/production/_ext/1360937237/A24LC512.o
 .debug_str     0x000000c8        0x0 build/default/production/_ext/1360937237/AConfigurationBits.o
 .debug_str     0x000000c8      0x10c build/default/production/_ext/1360937237/ACore.o
 .debug_str     0x000001d4       0x1a build/default/production/_ext/1360937237/ADateTime.o
 .debug_str     0x000001ee       0x30 build/default/production/_ext/1360937237/AErrorNotifier.o
 .debug_str     0x0000021e       0x32 build/default/production/_ext/1360937237/AI2CDriver.o
 .debug_str     0x00000250       0x16 build/default/production/_ext/1360937237/AInterruptSource.o
 .debug_str     0x00000266       0x32 build/default/production/_ext/1360937237/ALcd.o
 .debug_str     0x00000298       0x4d build/default/production/_ext/1360937237/APCF8563.o
 .debug_str     0x000002e5       0x32 build/default/production/_ext/1360937237/APorts.o
 .debug_str     0x00000317      0x1b6 build/default/production/_ext/1360937237/AString.o
 .debug_str     0x000004cd       0x7b build/default/production/_ext/1360937237/ATime.o
 .debug_str     0x00000548      0x1bb build/default/production/_ext/1360937237/ATimers.o
 .debug_str     0x00000703       0x22 build/default/production/_ext/1360937237/AUARTDriver.o
 .debug_str     0x00000725       0xa1 build/default/production/_ext/1360937237/AESP8266.o
 .debug_str     0x000007c6       0xcb build/default/production/_ext/1360937237/MTemp.o
 .debug_str     0x00000891       0x1d build/default/production/_ext/1360937237/AXbee.o
 .debug_str     0x000008ae        0x0 /Applications/microchip/xc32/v1.40/bin/bin/../../lib/gcc/pic32mx/4.8.3/../../../../pic32mx/lib/libxcpp.a(abort.o)
 .debug_str     0x000008ae        0x0 /Applications/microchip/xc32/v1.40/bin/bin/../../lib/gcc/pic32mx/4.8.3/../../../../pic32mx/lib/libxcpp.a(abs.o)
 .debug_str     0x000008ae        0x0 /Applications/microchip/xc32/v1.40/bin/bin/../../lib/gcc/pic32mx/4.8.3/../../../../pic32mx/lib/libxcpp.a(exit.o)
 .debug_str     0x000008ae        0x0 /Applications/microchip/xc32/v1.40/bin/bin/../../lib/gcc/pic32mx/4.8.3/../../../../pic32mx/lib/libxcpp.a(free.o)
 .debug_str     0x000008ae        0x0 /Applications/microchip/xc32/v1.40/bin/bin/../../lib/gcc/pic32mx/4.8.3/../../../../pic32mx/lib/libxcpp.a(malloc.o)
 .debug_str     0x000008ae        0x0 /Applications/microchip/xc32/v1.40/bin/bin/../../lib/gcc/pic32mx/4.8.3/../../../../pic32mx/lib/libxcpp.a(memcpy.o)
 .debug_str     0x000008ae        0x0 /Applications/microchip/xc32/v1.40/bin/bin/../../lib/gcc/pic32mx/4.8.3/../../../../pic32mx/lib/libxcpp.a(memset.o)
 .debug_str     0x000008ae        0x0 /Applications/microchip/xc32/v1.40/bin/bin/../../lib/gcc/pic32mx/4.8.3/../../../../pic32mx/lib/libxcpp.a(raise.o)
 .debug_str     0x000008ae        0x0 /Applications/microchip/xc32/v1.40/bin/bin/../../lib/gcc/pic32mx/4.8.3/../../../../pic32mx/lib/libxcpp.a(round.o)
 .debug_str     0x000008ae        0x0 /Applications/microchip/xc32/v1.40/bin/bin/../../lib/gcc/pic32mx/4.8.3/../../../../pic32mx/lib/libxcpp.a(strcmp.o)
 .debug_str     0x000008ae        0x0 /Applications/microchip/xc32/v1.40/bin/bin/../../lib/gcc/pic32mx/4.8.3/../../../../pic32mx/lib/libxcpp.a(strlen.o)
 .debug_str     0x000008ae        0x0 /Applications/microchip/xc32/v1.40/bin/bin/../../lib/gcc/pic32mx/4.8.3/../../../../pic32mx/lib/libxcpp.a(strstr.o)
 .debug_str     0x000008ae        0x0 /Applications/microchip/xc32/v1.40/bin/bin/../../lib/gcc/pic32mx/4.8.3/../../../../pic32mx/lib/libxcpp.a(xdint.o)
 .debug_str     0x000008ae        0x0 /Applications/microchip/xc32/v1.40/bin/bin/../../lib/gcc/pic32mx/4.8.3/../../../../pic32mx/lib/libxcpp.a(xexit.o)
 .debug_str     0x000008ae        0x0 /Applications/microchip/xc32/v1.40/bin/bin/../../lib/gcc/pic32mx/4.8.3/../../../../pic32mx/lib/libxcpp.a(xgetmem.o)
 .debug_str     0x000008ae        0x0 /Applications/microchip/xc32/v1.40/bin/bin/../../lib/gcc/pic32mx/4.8.3/../../../../pic32mx/lib/libxcpp.a(strchr.o)
 .debug_str     0x000008ae        0x0 /Applications/microchip/xc32/v1.40/bin/bin/../../lib/gcc/pic32mx/4.8.3/libgcc.a(_divdi3.o)
 .debug_str     0x000008ae        0x0 /Applications/microchip/xc32/v1.40/bin/bin/../../lib/gcc/pic32mx/4.8.3/libgcc.a(_moddi3.o)
 .debug_str     0x000008ae        0x0 /Applications/microchip/xc32/v1.40/bin/bin/../../lib/gcc/pic32mx/4.8.3/libgcc.a(floatunsisf.o)
 .debug_str     0x000008ae       0x40 /Applications/microchip/xc32/v1.40/bin/bin/../../lib/gcc/pic32mx/4.8.3/libgcc.a(unwind-sjlj.o)
 .debug_str     0x000008ee        0x0 /Applications/microchip/xc32/v1.40/bin/bin/../../lib/gcc/pic32mx/4.8.3/../../../../pic32mx/lib/libpic32.a(sbrk.o)
 .debug_str     0x000008ee        0x0 /Applications/microchip/xc32/v1.40/bin/bin/../../lib/gcc/pic32mx/4.8.3/../../../../pic32mx/lib/libpic32.a(default-bootstrap-exception-handler.o)
 .debug_str     0x000008ee        0x0 /Applications/microchip/xc32/v1.40/bin/bin/../../lib/gcc/pic32mx/4.8.3/../../../../pic32mx/lib/libpic32.a(default-on-reset.o)
 .debug_str     0x000008ee        0x0 /Applications/microchip/xc32/v1.40/bin/bin/../../lib/gcc/pic32mx/4.8.3/../../../../pic32mx/lib/libpic32.a(default-on-bootstrap.o)
 .debug_str     0x000008ee        0x0 /Applications/microchip/xc32/v1.40/bin/bin/../../lib/gcc/pic32mx/4.8.3/../../../../pic32mx/lib/libpic32.a(_exit.o)
 .debug_str     0x000008ee        0x0 /Applications/microchip/xc32/v1.40/bin/bin/../../lib/gcc/pic32mx/4.8.3/../../../../pic32mx/lib/libpic32.a(kill.o)
 .debug_str     0x000008ee        0x0 /Applications/microchip/xc32/v1.40/bin/bin/../../lib/gcc/pic32mx/4.8.3/../../../../pic32mx/lib/libpic32.a(getpid.o)
 .debug_str     0x000008ee        0x0 /Applications/microchip/xc32/v1.40/bin/bin/../../lib/gcc/pic32mx/4.8.3/../../../../pic32mx/lib/libpic32.a(errno.o)
 .debug_str     0x000008ee        0x0 /Applications/microchip/xc32/v1.40/bin/bin/../../lib/gcc/pic32mx/4.8.3/../../../../pic32mx/lib/libpic32.a(default-general-exception-handler.o)
 .debug_str     0x000008ee        0x0 /Applications/microchip/xc32/v1.40/bin/bin/../../lib/gcc/pic32mx/4.8.3/../../../../pic32mx/lib/libpic32.a(defaultinterrupt.o)

.debug_loc      0x00000000     0x1b6d
 *(.debug_loc)
 .debug_loc     0x00000000      0x9ee /Applications/microchip/xc32/v1.40/bin/bin/../../lib/gcc/pic32mx/4.8.3/libgcc.a(_divdi3.o)
 .debug_loc     0x000009ee      0x828 /Applications/microchip/xc32/v1.40/bin/bin/../../lib/gcc/pic32mx/4.8.3/libgcc.a(_moddi3.o)
 .debug_loc     0x00001216       0x74 /Applications/microchip/xc32/v1.40/bin/bin/../../lib/gcc/pic32mx/4.8.3/libgcc.a(floatunsisf.o)
 .debug_loc     0x0000128a      0x8e3 /Applications/microchip/xc32/v1.40/bin/bin/../../lib/gcc/pic32mx/4.8.3/libgcc.a(unwind-sjlj.o)

.debug_macinfo
 *(.debug_macinfo)

.debug_weaknames
 *(.debug_weaknames)

.debug_funcnames
 *(.debug_funcnames)

.debug_typenames
 *(.debug_typenames)

.debug_varnames
 *(.debug_varnames)

.debug_pubtypes
 *(.debug_pubtypes)

.debug_ranges   0x00000000      0x558
 *(.debug_ranges)
 .debug_ranges  0x00000000       0x18 build/default/production/_ext/1360937237/AErrorNotifier.o
 .debug_ranges  0x00000018       0x20 build/default/production/_ext/1360937237/AI2CDriver.o
 .debug_ranges  0x00000038       0x18 build/default/production/_ext/1360937237/AInterruptSource.o
 .debug_ranges  0x00000050       0x38 build/default/production/_ext/1360937237/APorts.o
 .debug_ranges  0x00000088       0xe8 build/default/production/_ext/1360937237/AString.o
 .debug_ranges  0x00000170       0x30 build/default/production/_ext/1360937237/ATimers.o
 .debug_ranges  0x000001a0       0x18 build/default/production/_ext/1360937237/AUARTDriver.o
 .debug_ranges  0x000001b8       0x10 /Applications/microchip/xc32/v1.40/bin/bin/../../lib/gcc/pic32mx/4.8.3/../../../../pic32mx/lib/libxcpp.a(abort.o)
 .debug_ranges  0x000001c8       0x10 /Applications/microchip/xc32/v1.40/bin/bin/../../lib/gcc/pic32mx/4.8.3/../../../../pic32mx/lib/libxcpp.a(abs.o)
 .debug_ranges  0x000001d8       0x20 /Applications/microchip/xc32/v1.40/bin/bin/../../lib/gcc/pic32mx/4.8.3/../../../../pic32mx/lib/libxcpp.a(exit.o)
 .debug_ranges  0x000001f8       0x10 /Applications/microchip/xc32/v1.40/bin/bin/../../lib/gcc/pic32mx/4.8.3/../../../../pic32mx/lib/libxcpp.a(free.o)
 .debug_ranges  0x00000208       0x10 /Applications/microchip/xc32/v1.40/bin/bin/../../lib/gcc/pic32mx/4.8.3/../../../../pic32mx/lib/libxcpp.a(malloc.o)
 .debug_ranges  0x00000218       0x10 /Applications/microchip/xc32/v1.40/bin/bin/../../lib/gcc/pic32mx/4.8.3/../../../../pic32mx/lib/libxcpp.a(memcpy.o)
 .debug_ranges  0x00000228       0x10 /Applications/microchip/xc32/v1.40/bin/bin/../../lib/gcc/pic32mx/4.8.3/../../../../pic32mx/lib/libxcpp.a(memset.o)
 .debug_ranges  0x00000238       0x10 /Applications/microchip/xc32/v1.40/bin/bin/../../lib/gcc/pic32mx/4.8.3/../../../../pic32mx/lib/libxcpp.a(raise.o)
 .debug_ranges  0x00000248       0x10 /Applications/microchip/xc32/v1.40/bin/bin/../../lib/gcc/pic32mx/4.8.3/../../../../pic32mx/lib/libxcpp.a(round.o)
 .debug_ranges  0x00000258       0x10 /Applications/microchip/xc32/v1.40/bin/bin/../../lib/gcc/pic32mx/4.8.3/../../../../pic32mx/lib/libxcpp.a(strcmp.o)
 .debug_ranges  0x00000268       0x10 /Applications/microchip/xc32/v1.40/bin/bin/../../lib/gcc/pic32mx/4.8.3/../../../../pic32mx/lib/libxcpp.a(strlen.o)
 .debug_ranges  0x00000278       0x10 /Applications/microchip/xc32/v1.40/bin/bin/../../lib/gcc/pic32mx/4.8.3/../../../../pic32mx/lib/libxcpp.a(strstr.o)
 .debug_ranges  0x00000288       0x10 /Applications/microchip/xc32/v1.40/bin/bin/../../lib/gcc/pic32mx/4.8.3/../../../../pic32mx/lib/libxcpp.a(xdint.o)
 .debug_ranges  0x00000298       0x10 /Applications/microchip/xc32/v1.40/bin/bin/../../lib/gcc/pic32mx/4.8.3/../../../../pic32mx/lib/libxcpp.a(xexit.o)
 .debug_ranges  0x000002a8       0x10 /Applications/microchip/xc32/v1.40/bin/bin/../../lib/gcc/pic32mx/4.8.3/../../../../pic32mx/lib/libxcpp.a(xgetmem.o)
 .debug_ranges  0x000002b8       0x10 /Applications/microchip/xc32/v1.40/bin/bin/../../lib/gcc/pic32mx/4.8.3/../../../../pic32mx/lib/libxcpp.a(strchr.o)
 .debug_ranges  0x000002c8       0x78 /Applications/microchip/xc32/v1.40/bin/bin/../../lib/gcc/pic32mx/4.8.3/libgcc.a(_divdi3.o)
 .debug_ranges  0x00000340       0xd0 /Applications/microchip/xc32/v1.40/bin/bin/../../lib/gcc/pic32mx/4.8.3/libgcc.a(_moddi3.o)
 .debug_ranges  0x00000410       0x98 /Applications/microchip/xc32/v1.40/bin/bin/../../lib/gcc/pic32mx/4.8.3/libgcc.a(unwind-sjlj.o)
 .debug_ranges  0x000004a8       0x30 /Applications/microchip/xc32/v1.40/bin/bin/../../lib/gcc/pic32mx/4.8.3/../../../../pic32mx/lib/libpic32.a(sbrk.o)
 .debug_ranges  0x000004d8       0x10 /Applications/microchip/xc32/v1.40/bin/bin/../../lib/gcc/pic32mx/4.8.3/../../../../pic32mx/lib/libpic32.a(default-bootstrap-exception-handler.o)
 .debug_ranges  0x000004e8       0x10 /Applications/microchip/xc32/v1.40/bin/bin/../../lib/gcc/pic32mx/4.8.3/../../../../pic32mx/lib/libpic32.a(default-on-reset.o)
 .debug_ranges  0x000004f8       0x10 /Applications/microchip/xc32/v1.40/bin/bin/../../lib/gcc/pic32mx/4.8.3/../../../../pic32mx/lib/libpic32.a(default-on-bootstrap.o)
 .debug_ranges  0x00000508       0x10 /Applications/microchip/xc32/v1.40/bin/bin/../../lib/gcc/pic32mx/4.8.3/../../../../pic32mx/lib/libpic32.a(_exit.o)
 .debug_ranges  0x00000518       0x10 /Applications/microchip/xc32/v1.40/bin/bin/../../lib/gcc/pic32mx/4.8.3/../../../../pic32mx/lib/libpic32.a(kill.o)
 .debug_ranges  0x00000528       0x10 /Applications/microchip/xc32/v1.40/bin/bin/../../lib/gcc/pic32mx/4.8.3/../../../../pic32mx/lib/libpic32.a(getpid.o)
 .debug_ranges  0x00000538       0x10 /Applications/microchip/xc32/v1.40/bin/bin/../../lib/gcc/pic32mx/4.8.3/../../../../pic32mx/lib/libpic32.a(default-general-exception-handler.o)
 .debug_ranges  0x00000548       0x10 /Applications/microchip/xc32/v1.40/bin/bin/../../lib/gcc/pic32mx/4.8.3/../../../../pic32mx/lib/libpic32.a(defaultinterrupt.o)

.gnu.attributes
                0x00000000       0x10
 *(.gnu.attributes)
 .gnu.attributes
                0x00000000       0x10 /Applications/microchip/xc32/v1.40/bin/bin/../../lib/gcc/pic32mx/4.8.3/crtbegin.o
 .gnu.attributes
                0x00000010       0x10 build/default/production/main.o
 .gnu.attributes
                0x00000020       0x10 build/default/production/_ext/1360937237/A24LC512.o
 .gnu.attributes
                0x00000030       0x10 build/default/production/_ext/1360937237/AConfigurationBits.o
 .gnu.attributes
                0x00000040       0x10 build/default/production/_ext/1360937237/ACore.o
 .gnu.attributes
                0x00000050       0x10 build/default/production/_ext/1360937237/ADateTime.o
 .gnu.attributes
                0x00000060       0x10 build/default/production/_ext/1360937237/AErrorNotifier.o
 .gnu.attributes
                0x00000070       0x10 build/default/production/_ext/1360937237/AI2CDriver.o
 .gnu.attributes
                0x00000080       0x10 build/default/production/_ext/1360937237/AInterruptSource.o
 .gnu.attributes
                0x00000090       0x10 build/default/production/_ext/1360937237/ALcd.o
 .gnu.attributes
                0x000000a0       0x10 build/default/production/_ext/1360937237/APCF8563.o
 .gnu.attributes
                0x000000b0       0x10 build/default/production/_ext/1360937237/APorts.o
 .gnu.attributes
                0x000000c0       0x10 build/default/production/_ext/1360937237/AString.o
 .gnu.attributes
                0x000000d0       0x10 build/default/production/_ext/1360937237/ATime.o
 .gnu.attributes
                0x000000e0       0x10 build/default/production/_ext/1360937237/ATimers.o
 .gnu.attributes
                0x000000f0       0x10 build/default/production/_ext/1360937237/AUARTDriver.o
 .gnu.attributes
                0x00000100       0x10 build/default/production/_ext/1360937237/AESP8266.o
 .gnu.attributes
                0x00000110       0x10 build/default/production/_ext/1360937237/MTemp.o
 .gnu.attributes
                0x00000120       0x10 build/default/production/_ext/1360937237/AXbee.o
 .gnu.attributes
                0x00000130       0x10 /Applications/microchip/xc32/v1.40/bin/bin/../../lib/gcc/pic32mx/4.8.3/../../../../pic32mx/lib/libsupc++.a(class_type_info.o)
 .gnu.attributes
                0x00000140       0x10 /Applications/microchip/xc32/v1.40/bin/bin/../../lib/gcc/pic32mx/4.8.3/../../../../pic32mx/lib/libsupc++.a(eh_personality.o)
 .gnu.attributes
                0x00000150       0x10 /Applications/microchip/xc32/v1.40/bin/bin/../../lib/gcc/pic32mx/4.8.3/../../../../pic32mx/lib/libsupc++.a(eh_terminate.o)
 .gnu.attributes
                0x00000160       0x10 /Applications/microchip/xc32/v1.40/bin/bin/../../lib/gcc/pic32mx/4.8.3/../../../../pic32mx/lib/libsupc++.a(eh_throw.o)
 .gnu.attributes
                0x00000170       0x10 /Applications/microchip/xc32/v1.40/bin/bin/../../lib/gcc/pic32mx/4.8.3/../../../../pic32mx/lib/libsupc++.a(eh_unex_handler.o)
 .gnu.attributes
                0x00000180       0x10 /Applications/microchip/xc32/v1.40/bin/bin/../../lib/gcc/pic32mx/4.8.3/../../../../pic32mx/lib/libsupc++.a(si_class_type_info.o)
 .gnu.attributes
                0x00000190       0x10 /Applications/microchip/xc32/v1.40/bin/bin/../../lib/gcc/pic32mx/4.8.3/../../../../pic32mx/lib/libsupc++.a(tinfo.o)
 .gnu.attributes
                0x000001a0       0x10 /Applications/microchip/xc32/v1.40/bin/bin/../../lib/gcc/pic32mx/4.8.3/../../../../pic32mx/lib/libsupc++.a(pure.o)
 .gnu.attributes
                0x000001b0       0x10 /Applications/microchip/xc32/v1.40/bin/bin/../../lib/gcc/pic32mx/4.8.3/../../../../pic32mx/lib/libsupc++.a(eh_alloc.o)
 .gnu.attributes
                0x000001c0       0x10 /Applications/microchip/xc32/v1.40/bin/bin/../../lib/gcc/pic32mx/4.8.3/../../../../pic32mx/lib/libsupc++.a(eh_call.o)
 .gnu.attributes
                0x000001d0       0x10 /Applications/microchip/xc32/v1.40/bin/bin/../../lib/gcc/pic32mx/4.8.3/../../../../pic32mx/lib/libsupc++.a(eh_catch.o)
 .gnu.attributes
                0x000001e0       0x10 /Applications/microchip/xc32/v1.40/bin/bin/../../lib/gcc/pic32mx/4.8.3/../../../../pic32mx/lib/libsupc++.a(eh_exception.o)
 .gnu.attributes
                0x000001f0       0x10 /Applications/microchip/xc32/v1.40/bin/bin/../../lib/gcc/pic32mx/4.8.3/../../../../pic32mx/lib/libsupc++.a(eh_globals.o)
 .gnu.attributes
                0x00000200       0x10 /Applications/microchip/xc32/v1.40/bin/bin/../../lib/gcc/pic32mx/4.8.3/../../../../pic32mx/lib/libsupc++.a(eh_term_handler.o)
 .gnu.attributes
                0x00000210       0x10 /Applications/microchip/xc32/v1.40/bin/bin/../../lib/gcc/pic32mx/4.8.3/../../../../pic32mx/lib/libxcpp.a(abort.o)
 .gnu.attributes
                0x00000220       0x10 /Applications/microchip/xc32/v1.40/bin/bin/../../lib/gcc/pic32mx/4.8.3/../../../../pic32mx/lib/libxcpp.a(abs.o)
 .gnu.attributes
                0x00000230       0x10 /Applications/microchip/xc32/v1.40/bin/bin/../../lib/gcc/pic32mx/4.8.3/../../../../pic32mx/lib/libxcpp.a(exit.o)
 .gnu.attributes
                0x00000240       0x10 /Applications/microchip/xc32/v1.40/bin/bin/../../lib/gcc/pic32mx/4.8.3/../../../../pic32mx/lib/libxcpp.a(free.o)
 .gnu.attributes
                0x00000250       0x10 /Applications/microchip/xc32/v1.40/bin/bin/../../lib/gcc/pic32mx/4.8.3/../../../../pic32mx/lib/libxcpp.a(malloc.o)
 .gnu.attributes
                0x00000260       0x10 /Applications/microchip/xc32/v1.40/bin/bin/../../lib/gcc/pic32mx/4.8.3/../../../../pic32mx/lib/libxcpp.a(memcpy.o)
 .gnu.attributes
                0x00000270       0x10 /Applications/microchip/xc32/v1.40/bin/bin/../../lib/gcc/pic32mx/4.8.3/../../../../pic32mx/lib/libxcpp.a(memset.o)
 .gnu.attributes
                0x00000280       0x10 /Applications/microchip/xc32/v1.40/bin/bin/../../lib/gcc/pic32mx/4.8.3/../../../../pic32mx/lib/libxcpp.a(raise.o)
 .gnu.attributes
                0x00000290       0x10 /Applications/microchip/xc32/v1.40/bin/bin/../../lib/gcc/pic32mx/4.8.3/../../../../pic32mx/lib/libxcpp.a(round.o)
 .gnu.attributes
                0x000002a0       0x10 /Applications/microchip/xc32/v1.40/bin/bin/../../lib/gcc/pic32mx/4.8.3/../../../../pic32mx/lib/libxcpp.a(strcmp.o)
 .gnu.attributes
                0x000002b0       0x10 /Applications/microchip/xc32/v1.40/bin/bin/../../lib/gcc/pic32mx/4.8.3/../../../../pic32mx/lib/libxcpp.a(strlen.o)
 .gnu.attributes
                0x000002c0       0x10 /Applications/microchip/xc32/v1.40/bin/bin/../../lib/gcc/pic32mx/4.8.3/../../../../pic32mx/lib/libxcpp.a(strstr.o)
 .gnu.attributes
                0x000002d0       0x10 /Applications/microchip/xc32/v1.40/bin/bin/../../lib/gcc/pic32mx/4.8.3/../../../../pic32mx/lib/libxcpp.a(xdint.o)
 .gnu.attributes
                0x000002e0       0x10 /Applications/microchip/xc32/v1.40/bin/bin/../../lib/gcc/pic32mx/4.8.3/../../../../pic32mx/lib/libxcpp.a(xexit.o)
 .gnu.attributes
                0x000002f0       0x10 /Applications/microchip/xc32/v1.40/bin/bin/../../lib/gcc/pic32mx/4.8.3/../../../../pic32mx/lib/libxcpp.a(xgetmem.o)
 .gnu.attributes
                0x00000300       0x10 /Applications/microchip/xc32/v1.40/bin/bin/../../lib/gcc/pic32mx/4.8.3/../../../../pic32mx/lib/libxcpp.a(strchr.o)
 .gnu.attributes
                0x00000310       0x10 /Applications/microchip/xc32/v1.40/bin/bin/../../lib/gcc/pic32mx/4.8.3/libgcc.a(_divdi3.o)
 .gnu.attributes
                0x00000320       0x10 /Applications/microchip/xc32/v1.40/bin/bin/../../lib/gcc/pic32mx/4.8.3/libgcc.a(_moddi3.o)
 .gnu.attributes
                0x00000330       0x10 /Applications/microchip/xc32/v1.40/bin/bin/../../lib/gcc/pic32mx/4.8.3/libgcc.a(floatunsisf.o)
 .gnu.attributes
                0x00000340       0x10 /Applications/microchip/xc32/v1.40/bin/bin/../../lib/gcc/pic32mx/4.8.3/libgcc.a(unwind-sjlj.o)
 .gnu.attributes
                0x00000350       0x10 /Applications/microchip/xc32/v1.40/bin/bin/../../lib/gcc/pic32mx/4.8.3/../../../../pic32mx/lib/libpic32.a(sbrk.o)
 .gnu.attributes
                0x00000360       0x10 /Applications/microchip/xc32/v1.40/bin/bin/../../lib/gcc/pic32mx/4.8.3/../../../../pic32mx/lib/libpic32.a(default-bootstrap-exception-handler.o)
 .gnu.attributes
                0x00000370       0x10 /Applications/microchip/xc32/v1.40/bin/bin/../../lib/gcc/pic32mx/4.8.3/../../../../pic32mx/lib/libpic32.a(default-on-reset.o)
 .gnu.attributes
                0x00000380       0x10 /Applications/microchip/xc32/v1.40/bin/bin/../../lib/gcc/pic32mx/4.8.3/../../../../pic32mx/lib/libpic32.a(default-on-bootstrap.o)
 .gnu.attributes
                0x00000390       0x10 /Applications/microchip/xc32/v1.40/bin/bin/../../lib/gcc/pic32mx/4.8.3/../../../../pic32mx/lib/libpic32.a(_exit.o)
 .gnu.attributes
                0x000003a0       0x10 /Applications/microchip/xc32/v1.40/bin/bin/../../lib/gcc/pic32mx/4.8.3/../../../../pic32mx/lib/libpic32.a(kill.o)
 .gnu.attributes
                0x000003b0       0x10 /Applications/microchip/xc32/v1.40/bin/bin/../../lib/gcc/pic32mx/4.8.3/../../../../pic32mx/lib/libpic32.a(getpid.o)
 .gnu.attributes
                0x000003c0       0x10 /Applications/microchip/xc32/v1.40/bin/bin/../../lib/gcc/pic32mx/4.8.3/../../../../pic32mx/lib/libpic32.a(errno.o)
 .gnu.attributes
                0x000003d0       0x10 /Applications/microchip/xc32/v1.40/bin/bin/../../lib/gcc/pic32mx/4.8.3/../../../../pic32mx/lib/libpic32.a(default-general-exception-handler.o)
 .gnu.attributes
                0x000003e0       0x10 /Applications/microchip/xc32/v1.40/bin/bin/../../lib/gcc/pic32mx/4.8.3/../../../../pic32mx/lib/libpic32.a(defaultinterrupt.o)
 .gnu.attributes
                0x000003f0       0x10 /Applications/microchip/xc32/v1.40/bin/bin/../../lib/gcc/pic32mx/4.8.3/crtend.o
LOAD /Applications/microchip/xc32/v1.40/bin/bin/../../lib/gcc/pic32mx/4.8.3/libgcc.a
START GROUP
LOAD /Applications/microchip/xc32/v1.40/bin/bin/../../lib/gcc/pic32mx/4.8.3/../../../../pic32mx/lib/libpic32.a
LOAD /Applications/microchip/xc32/v1.40/bin/bin/../../lib/gcc/pic32mx/4.8.3/../../../../pic32mx/lib/libdebug.a
LOAD /Applications/microchip/xc32/v1.40/bin/bin/../../lib/gcc/pic32mx/4.8.3/../../../../pic32mx/lib/libxcpp.a
LOAD /Applications/microchip/xc32/v1.40/bin/bin/../../lib/gcc/pic32mx/4.8.3/../../../../pic32mx/lib/libsupc++.a
LOAD /Applications/microchip/xc32/v1.40/bin/bin/../../lib/gcc/pic32mx/4.8.3/../../../../pic32mx/lib/libpic32.a
LOAD /Applications/microchip/xc32/v1.40/bin/bin/../../lib/gcc/pic32mx/4.8.3/../../../../pic32mx/lib/libm.a
LOAD /Applications/microchip/xc32/v1.40/bin/bin/../../lib/gcc/pic32mx/4.8.3/../../../../pic32mx/lib/libe.a
LOAD /Applications/microchip/xc32/v1.40/bin/bin/../../lib/gcc/pic32mx/4.8.3/../../../../pic32mx/lib/libdsp.a
LOAD /Applications/microchip/xc32/v1.40/bin/bin/../../lib/gcc/pic32mx/4.8.3/libgcc.a
LOAD /Applications/microchip/xc32/v1.40/bin/bin/../../lib/gcc/pic32mx/4.8.3/../../../../pic32mx/lib/libpic32.a
END GROUP
LOAD /Applications/microchip/xc32/v1.40/bin/bin/../../lib/gcc/pic32mx/4.8.3/libgcc.a
LOAD /Applications/microchip/xc32/v1.40/bin/bin/../../lib/gcc/pic32mx/4.8.3/crtend.o
LOAD /Applications/microchip/xc32/v1.40/bin/bin/../../lib/gcc/pic32mx/4.8.3/crtn.o
OUTPUT(dist/default/production/WB32.X.production.elf elf32-tradlittlemips)
LOAD stack
LOAD data_init

.reginfo        0x00000000       0x18
 .reginfo       0x00000000       0x18 /Applications/microchip/xc32/v1.40/bin/bin/../../lib/gcc/pic32mx/4.8.3/../../../../pic32mx/lib/./proc/32MX270F256D/cpprt0_mips32r2.o

.stack          0xa0005688      0x400
 .stack         0xa0005688      0x400 stack

.bss            0xa00001e0      0x8a8
 .bss           0xa00001e0      0x8a8 build/default/production/_ext/1360937237/AUARTDriver.o
                0xa00001e0                U1er
                0xa00001f4                U1rx
                0xa0000208                U1tx
                0xa000021c                AFramework::UART1
                0xa0000634                U2er
                0xa0000648                U2rx
                0xa000065c                U2tx
                0xa0000670                AFramework::UART2

.bss._ZL16emergency_buffer.emergency_buffer
                0xa0000a88      0x800
 .bss._ZL16emergency_buffer.emergency_buffer
                0xa0000a88      0x800 /Applications/microchip/xc32/v1.40/bin/bin/../../lib/gcc/pic32mx/4.8.3/../../../../pic32mx/lib/libsupc++.a(eh_alloc.o)

.bss            0xa0001288      0x144
 .bss           0xa0001288      0x144 /Applications/microchip/xc32/v1.40/bin/bin/../../lib/gcc/pic32mx/4.8.3/../../../../pic32mx/lib/libxcpp.a(exit.o)
                0xa00013c8                _Atcount0

.bss._ZL17dependents_buffer.dependents_buffer
                0xa00013d0      0x100
 .bss._ZL17dependents_buffer.dependents_buffer
                0xa00013d0      0x100 /Applications/microchip/xc32/v1.40/bin/bin/../../lib/gcc/pic32mx/4.8.3/../../../../pic32mx/lib/libsupc++.a(eh_alloc.o)

.bss            0xa00014d0       0xf0
 .bss           0xa00014d0       0x68 build/default/production/_ext/1360937237/ATimers.o
                0xa00014d0                AFramework::Timer1
                0xa00014e0                AFramework::Timer2
                0xa00014f8                AFramework::Timer3
                0xa000150c                AFramework::Timer4
                0xa0001524                AFramework::Timer5
 .bss           0xa0001538       0x30 build/default/production/_ext/1360937237/AI2CDriver.o
                0xa0001538                AFramework::I2C1
                0xa0001550                AFramework::I2C2
 .bss           0xa0001568       0x24 /Applications/microchip/xc32/v1.40/bin/bin/../../lib/gcc/pic32mx/4.8.3/../../../../pic32mx/lib/libpic32.a(sbrk.o)
                0xa0001568                _minbrk
                0xa000156c                _maxbrk
 .bss           0xa000158c       0x20 /Applications/microchip/xc32/v1.40/bin/bin/../../lib/gcc/pic32mx/4.8.3/crtbegin.o
 .bss           0xa00015ac       0x14 build/default/production/_ext/1360937237/ACore.o
                0xa00015ac                AFramework::System::m_coreTimer

.data           0xa00015c0       0x8c
 .data          0xa00015c0        0xc /Applications/microchip/xc32/v1.40/bin/bin/../../lib/gcc/pic32mx/4.8.3/../../../../pic32mx/lib/libxcpp.a(exit.o)
                0xa00015c4                _Atfuns
                0xa00015c8                _Atcount
 .data          0xa00015cc        0x8 build/default/production/main.o
 .data          0xa00015d4        0x8 build/default/production/_ext/1360937237/A24LC512.o
 .data          0xa00015dc        0x8 build/default/production/_ext/1360937237/ACore.o
 .data          0xa00015e4        0x8 build/default/production/_ext/1360937237/ADateTime.o
 .data          0xa00015ec        0x8 build/default/production/_ext/1360937237/AI2CDriver.o
 .data          0xa00015f4        0x8 build/default/production/_ext/1360937237/AInterruptSource.o
 .data          0xa00015fc        0x8 build/default/production/_ext/1360937237/ALcd.o
 .data          0xa0001604        0x8 build/default/production/_ext/1360937237/APCF8563.o
 .data          0xa000160c        0x8 build/default/production/_ext/1360937237/APorts.o
 .data          0xa0001614        0x8 build/default/production/_ext/1360937237/AString.o
 .data          0xa000161c        0x8 build/default/production/_ext/1360937237/ATime.o
 .data          0xa0001624        0x8 build/default/production/_ext/1360937237/ATimers.o
 .data          0xa000162c        0x8 build/default/production/_ext/1360937237/AUARTDriver.o
 .data          0xa0001634        0x8 build/default/production/_ext/1360937237/AESP8266.o
 .data          0xa000163c        0x8 build/default/production/_ext/1360937237/MTemp.o
 .data          0xa0001644        0x8 build/default/production/_ext/1360937237/AXbee.o

.bss            0xa000164c        0x8
 .bss           0xa000164c        0x8 /Applications/microchip/xc32/v1.40/bin/bin/../../lib/gcc/pic32mx/4.8.3/../../../../pic32mx/lib/libxcpp.a(malloc.o)
                0xa000164c                _Aldata

.data           0xa00013cc        0x4
 .data          0xa00013cc        0x4 /Applications/microchip/xc32/v1.40/bin/bin/../../lib/gcc/pic32mx/4.8.3/crtbegin.o

.data           0xa0001654        0x4
 .data          0xa0001654        0x4 /Applications/microchip/xc32/v1.40/bin/bin/../../lib/gcc/pic32mx/4.8.3/../../../../pic32mx/lib/libxcpp.a(malloc.o)
                0xa0001654                _Size_block

.bss            0xa0001658        0x8
 .bss           0xa0001658        0x4 /Applications/microchip/xc32/v1.40/bin/bin/../../lib/gcc/pic32mx/4.8.3/libgcc.a(unwind-sjlj.o)
 .bss           0xa000165c        0x4 /Applications/microchip/xc32/v1.40/bin/bin/../../lib/gcc/pic32mx/4.8.3/../../../../pic32mx/lib/libpic32.a(errno.o)
                0xa000165c                errno

.data           0xa0001660        0x4
 .data          0xa0001660        0x4 /Applications/microchip/xc32/v1.40/bin/bin/../../lib/gcc/pic32mx/4.8.3/crtend.o

.bss            0x00000000        0x0
 .bss           0x00000000        0x0 /Applications/microchip/xc32/v1.40/bin/bin/../../lib/gcc/pic32mx/4.8.3/crtn.o

.data           0x00000000        0x0
 .data          0x00000000        0x0 /Applications/microchip/xc32/v1.40/bin/bin/../../lib/gcc/pic32mx/4.8.3/crtn.o

.tm_clone_table
                0x00000000        0x0
 .tm_clone_table
                0x00000000        0x0 /Applications/microchip/xc32/v1.40/bin/bin/../../lib/gcc/pic32mx/4.8.3/crtend.o
                0x00000000                __TMC_END__

.bss            0x00000000        0x0
 .bss           0x00000000        0x0 /Applications/microchip/xc32/v1.40/bin/bin/../../lib/gcc/pic32mx/4.8.3/crtend.o

.bss            0x00000000        0x0
 .bss           0x00000000        0x0 /Applications/microchip/xc32/v1.40/bin/bin/../../lib/gcc/pic32mx/4.8.3/../../../../pic32mx/lib/libm.a(sitofp.o)

.data           0x00000000        0x0
 .data          0x00000000        0x0 /Applications/microchip/xc32/v1.40/bin/bin/../../lib/gcc/pic32mx/4.8.3/../../../../pic32mx/lib/libm.a(sitofp.o)

.bss            0x00000000        0x0
 .bss           0x00000000        0x0 /Applications/microchip/xc32/v1.40/bin/bin/../../lib/gcc/pic32mx/4.8.3/../../../../pic32mx/lib/libm.a(fptoul.o)

.data           0x00000000        0x0
 .data          0x00000000        0x0 /Applications/microchip/xc32/v1.40/bin/bin/../../lib/gcc/pic32mx/4.8.3/../../../../pic32mx/lib/libm.a(fptoul.o)

.bss            0x00000000        0x0
 .bss           0x00000000        0x0 /Applications/microchip/xc32/v1.40/bin/bin/../../lib/gcc/pic32mx/4.8.3/../../../../pic32mx/lib/libm.a(fpcmp.o)

.data           0x00000000        0x0
 .data          0x00000000        0x0 /Applications/microchip/xc32/v1.40/bin/bin/../../lib/gcc/pic32mx/4.8.3/../../../../pic32mx/lib/libm.a(fpcmp.o)

.bss            0x00000000        0x0
 .bss           0x00000000        0x0 /Applications/microchip/xc32/v1.40/bin/bin/../../lib/gcc/pic32mx/4.8.3/../../../../pic32mx/lib/libm.a(fp32subadd.o)

.data           0x00000000        0x0
 .data          0x00000000        0x0 /Applications/microchip/xc32/v1.40/bin/bin/../../lib/gcc/pic32mx/4.8.3/../../../../pic32mx/lib/libm.a(fp32subadd.o)

.bss            0x00000000        0x0
 .bss           0x00000000        0x0 /Applications/microchip/xc32/v1.40/bin/bin/../../lib/gcc/pic32mx/4.8.3/../../../../pic32mx/lib/libm.a(fp32mul.o)

.data           0x00000000        0x0
 .data          0x00000000        0x0 /Applications/microchip/xc32/v1.40/bin/bin/../../lib/gcc/pic32mx/4.8.3/../../../../pic32mx/lib/libm.a(fp32mul.o)

.bss            0x00000000        0x0
 .bss           0x00000000        0x0 /Applications/microchip/xc32/v1.40/bin/bin/../../lib/gcc/pic32mx/4.8.3/../../../../pic32mx/lib/libm.a(fp32div.o)

.data           0x00000000        0x0
 .data          0x00000000        0x0 /Applications/microchip/xc32/v1.40/bin/bin/../../lib/gcc/pic32mx/4.8.3/../../../../pic32mx/lib/libm.a(fp32div.o)

.bss            0x00000000        0x0
 .bss           0x00000000        0x0 /Applications/microchip/xc32/v1.40/bin/bin/../../lib/gcc/pic32mx/4.8.3/../../../../pic32mx/lib/libpic32.a(defaultinterrupt.o)

.data           0x00000000        0x0
 .data          0x00000000        0x0 /Applications/microchip/xc32/v1.40/bin/bin/../../lib/gcc/pic32mx/4.8.3/../../../../pic32mx/lib/libpic32.a(defaultinterrupt.o)

.bss            0x00000000        0x0
 .bss           0x00000000        0x0 /Applications/microchip/xc32/v1.40/bin/bin/../../lib/gcc/pic32mx/4.8.3/../../../../pic32mx/lib/libpic32.a(default-general-exception-handler.o)

.data           0x00000000        0x0
 .data          0x00000000        0x0 /Applications/microchip/xc32/v1.40/bin/bin/../../lib/gcc/pic32mx/4.8.3/../../../../pic32mx/lib/libpic32.a(default-general-exception-handler.o)

.bss            0x00000000        0x0
 .bss           0x00000000        0x0 /Applications/microchip/xc32/v1.40/bin/bin/../../lib/gcc/pic32mx/4.8.3/../../../../pic32mx/lib/libpic32.a(vector43.o)

.data           0x00000000        0x0
 .data          0x00000000        0x0 /Applications/microchip/xc32/v1.40/bin/bin/../../lib/gcc/pic32mx/4.8.3/../../../../pic32mx/lib/libpic32.a(vector43.o)

.bss            0x00000000        0x0
 .bss           0x00000000        0x0 /Applications/microchip/xc32/v1.40/bin/bin/../../lib/gcc/pic32mx/4.8.3/../../../../pic32mx/lib/libpic32.a(vector42.o)

.data           0x00000000        0x0
 .data          0x00000000        0x0 /Applications/microchip/xc32/v1.40/bin/bin/../../lib/gcc/pic32mx/4.8.3/../../../../pic32mx/lib/libpic32.a(vector42.o)

.bss            0x00000000        0x0
 .bss           0x00000000        0x0 /Applications/microchip/xc32/v1.40/bin/bin/../../lib/gcc/pic32mx/4.8.3/../../../../pic32mx/lib/libpic32.a(vector41.o)

.data           0x00000000        0x0
 .data          0x00000000        0x0 /Applications/microchip/xc32/v1.40/bin/bin/../../lib/gcc/pic32mx/4.8.3/../../../../pic32mx/lib/libpic32.a(vector41.o)

.bss            0x00000000        0x0
 .bss           0x00000000        0x0 /Applications/microchip/xc32/v1.40/bin/bin/../../lib/gcc/pic32mx/4.8.3/../../../../pic32mx/lib/libpic32.a(vector40.o)

.data           0x00000000        0x0
 .data          0x00000000        0x0 /Applications/microchip/xc32/v1.40/bin/bin/../../lib/gcc/pic32mx/4.8.3/../../../../pic32mx/lib/libpic32.a(vector40.o)

.bss            0x00000000        0x0
 .bss           0x00000000        0x0 /Applications/microchip/xc32/v1.40/bin/bin/../../lib/gcc/pic32mx/4.8.3/../../../../pic32mx/lib/libpic32.a(vector39.o)

.data           0x00000000        0x0
 .data          0x00000000        0x0 /Applications/microchip/xc32/v1.40/bin/bin/../../lib/gcc/pic32mx/4.8.3/../../../../pic32mx/lib/libpic32.a(vector39.o)

.bss            0x00000000        0x0
 .bss           0x00000000        0x0 /Applications/microchip/xc32/v1.40/bin/bin/../../lib/gcc/pic32mx/4.8.3/../../../../pic32mx/lib/libpic32.a(vector38.o)

.data           0x00000000        0x0
 .data          0x00000000        0x0 /Applications/microchip/xc32/v1.40/bin/bin/../../lib/gcc/pic32mx/4.8.3/../../../../pic32mx/lib/libpic32.a(vector38.o)

.bss            0x00000000        0x0
 .bss           0x00000000        0x0 /Applications/microchip/xc32/v1.40/bin/bin/../../lib/gcc/pic32mx/4.8.3/../../../../pic32mx/lib/libpic32.a(vector37.o)

.data           0x00000000        0x0
 .data          0x00000000        0x0 /Applications/microchip/xc32/v1.40/bin/bin/../../lib/gcc/pic32mx/4.8.3/../../../../pic32mx/lib/libpic32.a(vector37.o)

.bss            0x00000000        0x0
 .bss           0x00000000        0x0 /Applications/microchip/xc32/v1.40/bin/bin/../../lib/gcc/pic32mx/4.8.3/../../../../pic32mx/lib/libpic32.a(vector36.o)

.data           0x00000000        0x0
 .data          0x00000000        0x0 /Applications/microchip/xc32/v1.40/bin/bin/../../lib/gcc/pic32mx/4.8.3/../../../../pic32mx/lib/libpic32.a(vector36.o)

.bss            0x00000000        0x0
 .bss           0x00000000        0x0 /Applications/microchip/xc32/v1.40/bin/bin/../../lib/gcc/pic32mx/4.8.3/../../../../pic32mx/lib/libpic32.a(vector35.o)

.data           0x00000000        0x0
 .data          0x00000000        0x0 /Applications/microchip/xc32/v1.40/bin/bin/../../lib/gcc/pic32mx/4.8.3/../../../../pic32mx/lib/libpic32.a(vector35.o)

.bss            0x00000000        0x0
 .bss           0x00000000        0x0 /Applications/microchip/xc32/v1.40/bin/bin/../../lib/gcc/pic32mx/4.8.3/../../../../pic32mx/lib/libpic32.a(vector34.o)

.data           0x00000000        0x0
 .data          0x00000000        0x0 /Applications/microchip/xc32/v1.40/bin/bin/../../lib/gcc/pic32mx/4.8.3/../../../../pic32mx/lib/libpic32.a(vector34.o)

.bss            0x00000000        0x0
 .bss           0x00000000        0x0 /Applications/microchip/xc32/v1.40/bin/bin/../../lib/gcc/pic32mx/4.8.3/../../../../pic32mx/lib/libpic32.a(vector33.o)

.data           0x00000000        0x0
 .data          0x00000000        0x0 /Applications/microchip/xc32/v1.40/bin/bin/../../lib/gcc/pic32mx/4.8.3/../../../../pic32mx/lib/libpic32.a(vector33.o)

.bss            0x00000000        0x0
 .bss           0x00000000        0x0 /Applications/microchip/xc32/v1.40/bin/bin/../../lib/gcc/pic32mx/4.8.3/../../../../pic32mx/lib/libpic32.a(vector31.o)

.data           0x00000000        0x0
 .data          0x00000000        0x0 /Applications/microchip/xc32/v1.40/bin/bin/../../lib/gcc/pic32mx/4.8.3/../../../../pic32mx/lib/libpic32.a(vector31.o)

.bss            0x00000000        0x0
 .bss           0x00000000        0x0 /Applications/microchip/xc32/v1.40/bin/bin/../../lib/gcc/pic32mx/4.8.3/../../../../pic32mx/lib/libpic32.a(vector30.o)

.data           0x00000000        0x0
 .data          0x00000000        0x0 /Applications/microchip/xc32/v1.40/bin/bin/../../lib/gcc/pic32mx/4.8.3/../../../../pic32mx/lib/libpic32.a(vector30.o)

.bss            0x00000000        0x0
 .bss           0x00000000        0x0 /Applications/microchip/xc32/v1.40/bin/bin/../../lib/gcc/pic32mx/4.8.3/../../../../pic32mx/lib/libpic32.a(vector29.o)

.data           0x00000000        0x0
 .data          0x00000000        0x0 /Applications/microchip/xc32/v1.40/bin/bin/../../lib/gcc/pic32mx/4.8.3/../../../../pic32mx/lib/libpic32.a(vector29.o)

.bss            0x00000000        0x0
 .bss           0x00000000        0x0 /Applications/microchip/xc32/v1.40/bin/bin/../../lib/gcc/pic32mx/4.8.3/../../../../pic32mx/lib/libpic32.a(vector28.o)

.data           0x00000000        0x0
 .data          0x00000000        0x0 /Applications/microchip/xc32/v1.40/bin/bin/../../lib/gcc/pic32mx/4.8.3/../../../../pic32mx/lib/libpic32.a(vector28.o)

.bss            0x00000000        0x0
 .bss           0x00000000        0x0 /Applications/microchip/xc32/v1.40/bin/bin/../../lib/gcc/pic32mx/4.8.3/../../../../pic32mx/lib/libpic32.a(vector27.o)

.data           0x00000000        0x0
 .data          0x00000000        0x0 /Applications/microchip/xc32/v1.40/bin/bin/../../lib/gcc/pic32mx/4.8.3/../../../../pic32mx/lib/libpic32.a(vector27.o)

.bss            0x00000000        0x0
 .bss           0x00000000        0x0 /Applications/microchip/xc32/v1.40/bin/bin/../../lib/gcc/pic32mx/4.8.3/../../../../pic32mx/lib/libpic32.a(vector26.o)

.data           0x00000000        0x0
 .data          0x00000000        0x0 /Applications/microchip/xc32/v1.40/bin/bin/../../lib/gcc/pic32mx/4.8.3/../../../../pic32mx/lib/libpic32.a(vector26.o)

.bss            0x00000000        0x0
 .bss           0x00000000        0x0 /Applications/microchip/xc32/v1.40/bin/bin/../../lib/gcc/pic32mx/4.8.3/../../../../pic32mx/lib/libpic32.a(vector25.o)

.data           0x00000000        0x0
 .data          0x00000000        0x0 /Applications/microchip/xc32/v1.40/bin/bin/../../lib/gcc/pic32mx/4.8.3/../../../../pic32mx/lib/libpic32.a(vector25.o)

.bss            0x00000000        0x0
 .bss           0x00000000        0x0 /Applications/microchip/xc32/v1.40/bin/bin/../../lib/gcc/pic32mx/4.8.3/../../../../pic32mx/lib/libpic32.a(vector24.o)

.data           0x00000000        0x0
 .data          0x00000000        0x0 /Applications/microchip/xc32/v1.40/bin/bin/../../lib/gcc/pic32mx/4.8.3/../../../../pic32mx/lib/libpic32.a(vector24.o)

.bss            0x00000000        0x0
 .bss           0x00000000        0x0 /Applications/microchip/xc32/v1.40/bin/bin/../../lib/gcc/pic32mx/4.8.3/../../../../pic32mx/lib/libpic32.a(vector23.o)

.data           0x00000000        0x0
 .data          0x00000000        0x0 /Applications/microchip/xc32/v1.40/bin/bin/../../lib/gcc/pic32mx/4.8.3/../../../../pic32mx/lib/libpic32.a(vector23.o)

.bss            0x00000000        0x0
 .bss           0x00000000        0x0 /Applications/microchip/xc32/v1.40/bin/bin/../../lib/gcc/pic32mx/4.8.3/../../../../pic32mx/lib/libpic32.a(vector22.o)

.data           0x00000000        0x0
 .data          0x00000000        0x0 /Applications/microchip/xc32/v1.40/bin/bin/../../lib/gcc/pic32mx/4.8.3/../../../../pic32mx/lib/libpic32.a(vector22.o)

.bss            0x00000000        0x0
 .bss           0x00000000        0x0 /Applications/microchip/xc32/v1.40/bin/bin/../../lib/gcc/pic32mx/4.8.3/../../../../pic32mx/lib/libpic32.a(vector21.o)

.data           0x00000000        0x0
 .data          0x00000000        0x0 /Applications/microchip/xc32/v1.40/bin/bin/../../lib/gcc/pic32mx/4.8.3/../../../../pic32mx/lib/libpic32.a(vector21.o)

.bss            0x00000000        0x0
 .bss           0x00000000        0x0 /Applications/microchip/xc32/v1.40/bin/bin/../../lib/gcc/pic32mx/4.8.3/../../../../pic32mx/lib/libpic32.a(vector20.o)

.data           0x00000000        0x0
 .data          0x00000000        0x0 /Applications/microchip/xc32/v1.40/bin/bin/../../lib/gcc/pic32mx/4.8.3/../../../../pic32mx/lib/libpic32.a(vector20.o)

.bss            0x00000000        0x0
 .bss           0x00000000        0x0 /Applications/microchip/xc32/v1.40/bin/bin/../../lib/gcc/pic32mx/4.8.3/../../../../pic32mx/lib/libpic32.a(vector19.o)

.data           0x00000000        0x0
 .data          0x00000000        0x0 /Applications/microchip/xc32/v1.40/bin/bin/../../lib/gcc/pic32mx/4.8.3/../../../../pic32mx/lib/libpic32.a(vector19.o)

.bss            0x00000000        0x0
 .bss           0x00000000        0x0 /Applications/microchip/xc32/v1.40/bin/bin/../../lib/gcc/pic32mx/4.8.3/../../../../pic32mx/lib/libpic32.a(vector18.o)

.data           0x00000000        0x0
 .data          0x00000000        0x0 /Applications/microchip/xc32/v1.40/bin/bin/../../lib/gcc/pic32mx/4.8.3/../../../../pic32mx/lib/libpic32.a(vector18.o)

.bss            0x00000000        0x0
 .bss           0x00000000        0x0 /Applications/microchip/xc32/v1.40/bin/bin/../../lib/gcc/pic32mx/4.8.3/../../../../pic32mx/lib/libpic32.a(vector17.o)

.data           0x00000000        0x0
 .data          0x00000000        0x0 /Applications/microchip/xc32/v1.40/bin/bin/../../lib/gcc/pic32mx/4.8.3/../../../../pic32mx/lib/libpic32.a(vector17.o)

.bss            0x00000000        0x0
 .bss           0x00000000        0x0 /Applications/microchip/xc32/v1.40/bin/bin/../../lib/gcc/pic32mx/4.8.3/../../../../pic32mx/lib/libpic32.a(vector16.o)

.data           0x00000000        0x0
 .data          0x00000000        0x0 /Applications/microchip/xc32/v1.40/bin/bin/../../lib/gcc/pic32mx/4.8.3/../../../../pic32mx/lib/libpic32.a(vector16.o)

.bss            0x00000000        0x0
 .bss           0x00000000        0x0 /Applications/microchip/xc32/v1.40/bin/bin/../../lib/gcc/pic32mx/4.8.3/../../../../pic32mx/lib/libpic32.a(vector15.o)

.data           0x00000000        0x0
 .data          0x00000000        0x0 /Applications/microchip/xc32/v1.40/bin/bin/../../lib/gcc/pic32mx/4.8.3/../../../../pic32mx/lib/libpic32.a(vector15.o)

.bss            0x00000000        0x0
 .bss           0x00000000        0x0 /Applications/microchip/xc32/v1.40/bin/bin/../../lib/gcc/pic32mx/4.8.3/../../../../pic32mx/lib/libpic32.a(vector14.o)

.data           0x00000000        0x0
 .data          0x00000000        0x0 /Applications/microchip/xc32/v1.40/bin/bin/../../lib/gcc/pic32mx/4.8.3/../../../../pic32mx/lib/libpic32.a(vector14.o)

.bss            0x00000000        0x0
 .bss           0x00000000        0x0 /Applications/microchip/xc32/v1.40/bin/bin/../../lib/gcc/pic32mx/4.8.3/../../../../pic32mx/lib/libpic32.a(vector13.o)

.data           0x00000000        0x0
 .data          0x00000000        0x0 /Applications/microchip/xc32/v1.40/bin/bin/../../lib/gcc/pic32mx/4.8.3/../../../../pic32mx/lib/libpic32.a(vector13.o)

.bss            0x00000000        0x0
 .bss           0x00000000        0x0 /Applications/microchip/xc32/v1.40/bin/bin/../../lib/gcc/pic32mx/4.8.3/../../../../pic32mx/lib/libpic32.a(vector12.o)

.data           0x00000000        0x0
 .data          0x00000000        0x0 /Applications/microchip/xc32/v1.40/bin/bin/../../lib/gcc/pic32mx/4.8.3/../../../../pic32mx/lib/libpic32.a(vector12.o)

.bss            0x00000000        0x0
 .bss           0x00000000        0x0 /Applications/microchip/xc32/v1.40/bin/bin/../../lib/gcc/pic32mx/4.8.3/../../../../pic32mx/lib/libpic32.a(vector11.o)

.data           0x00000000        0x0
 .data          0x00000000        0x0 /Applications/microchip/xc32/v1.40/bin/bin/../../lib/gcc/pic32mx/4.8.3/../../../../pic32mx/lib/libpic32.a(vector11.o)

.bss            0x00000000        0x0
 .bss           0x00000000        0x0 /Applications/microchip/xc32/v1.40/bin/bin/../../lib/gcc/pic32mx/4.8.3/../../../../pic32mx/lib/libpic32.a(vector10.o)

.data           0x00000000        0x0
 .data          0x00000000        0x0 /Applications/microchip/xc32/v1.40/bin/bin/../../lib/gcc/pic32mx/4.8.3/../../../../pic32mx/lib/libpic32.a(vector10.o)

.bss            0x00000000        0x0
 .bss           0x00000000        0x0 /Applications/microchip/xc32/v1.40/bin/bin/../../lib/gcc/pic32mx/4.8.3/../../../../pic32mx/lib/libpic32.a(vector9.o)

.data           0x00000000        0x0
 .data          0x00000000        0x0 /Applications/microchip/xc32/v1.40/bin/bin/../../lib/gcc/pic32mx/4.8.3/../../../../pic32mx/lib/libpic32.a(vector9.o)

.bss            0x00000000        0x0
 .bss           0x00000000        0x0 /Applications/microchip/xc32/v1.40/bin/bin/../../lib/gcc/pic32mx/4.8.3/../../../../pic32mx/lib/libpic32.a(vector8.o)

.data           0x00000000        0x0
 .data          0x00000000        0x0 /Applications/microchip/xc32/v1.40/bin/bin/../../lib/gcc/pic32mx/4.8.3/../../../../pic32mx/lib/libpic32.a(vector8.o)

.bss            0x00000000        0x0
 .bss           0x00000000        0x0 /Applications/microchip/xc32/v1.40/bin/bin/../../lib/gcc/pic32mx/4.8.3/../../../../pic32mx/lib/libpic32.a(vector7.o)

.data           0x00000000        0x0
 .data          0x00000000        0x0 /Applications/microchip/xc32/v1.40/bin/bin/../../lib/gcc/pic32mx/4.8.3/../../../../pic32mx/lib/libpic32.a(vector7.o)

.bss            0x00000000        0x0
 .bss           0x00000000        0x0 /Applications/microchip/xc32/v1.40/bin/bin/../../lib/gcc/pic32mx/4.8.3/../../../../pic32mx/lib/libpic32.a(vector6.o)

.data           0x00000000        0x0
 .data          0x00000000        0x0 /Applications/microchip/xc32/v1.40/bin/bin/../../lib/gcc/pic32mx/4.8.3/../../../../pic32mx/lib/libpic32.a(vector6.o)

.bss            0x00000000        0x0
 .bss           0x00000000        0x0 /Applications/microchip/xc32/v1.40/bin/bin/../../lib/gcc/pic32mx/4.8.3/../../../../pic32mx/lib/libpic32.a(vector5.o)

.data           0x00000000        0x0
 .data          0x00000000        0x0 /Applications/microchip/xc32/v1.40/bin/bin/../../lib/gcc/pic32mx/4.8.3/../../../../pic32mx/lib/libpic32.a(vector5.o)

.bss            0x00000000        0x0
 .bss           0x00000000        0x0 /Applications/microchip/xc32/v1.40/bin/bin/../../lib/gcc/pic32mx/4.8.3/../../../../pic32mx/lib/libpic32.a(vector4.o)

.data           0x00000000        0x0
 .data          0x00000000        0x0 /Applications/microchip/xc32/v1.40/bin/bin/../../lib/gcc/pic32mx/4.8.3/../../../../pic32mx/lib/libpic32.a(vector4.o)

.bss            0x00000000        0x0
 .bss           0x00000000        0x0 /Applications/microchip/xc32/v1.40/bin/bin/../../lib/gcc/pic32mx/4.8.3/../../../../pic32mx/lib/libpic32.a(vector3.o)

.data           0x00000000        0x0
 .data          0x00000000        0x0 /Applications/microchip/xc32/v1.40/bin/bin/../../lib/gcc/pic32mx/4.8.3/../../../../pic32mx/lib/libpic32.a(vector3.o)

.bss            0x00000000        0x0
 .bss           0x00000000        0x0 /Applications/microchip/xc32/v1.40/bin/bin/../../lib/gcc/pic32mx/4.8.3/../../../../pic32mx/lib/libpic32.a(vector2.o)

.data           0x00000000        0x0
 .data          0x00000000        0x0 /Applications/microchip/xc32/v1.40/bin/bin/../../lib/gcc/pic32mx/4.8.3/../../../../pic32mx/lib/libpic32.a(vector2.o)

.bss            0x00000000        0x0
 .bss           0x00000000        0x0 /Applications/microchip/xc32/v1.40/bin/bin/../../lib/gcc/pic32mx/4.8.3/../../../../pic32mx/lib/libpic32.a(vector1.o)

.data           0x00000000        0x0
 .data          0x00000000        0x0 /Applications/microchip/xc32/v1.40/bin/bin/../../lib/gcc/pic32mx/4.8.3/../../../../pic32mx/lib/libpic32.a(vector1.o)

.bss            0x00000000        0x0
 .bss           0x00000000        0x0 /Applications/microchip/xc32/v1.40/bin/bin/../../lib/gcc/pic32mx/4.8.3/../../../../pic32mx/lib/libpic32.a(general-exception.o)

.data           0x00000000        0x0
 .data          0x00000000        0x0 /Applications/microchip/xc32/v1.40/bin/bin/../../lib/gcc/pic32mx/4.8.3/../../../../pic32mx/lib/libpic32.a(general-exception.o)

.data           0x00000000        0x0
 .data          0x00000000        0x0 /Applications/microchip/xc32/v1.40/bin/bin/../../lib/gcc/pic32mx/4.8.3/../../../../pic32mx/lib/libpic32.a(errno.o)

.bss            0x00000000        0x0
 .bss           0x00000000        0x0 /Applications/microchip/xc32/v1.40/bin/bin/../../lib/gcc/pic32mx/4.8.3/../../../../pic32mx/lib/libpic32.a(getpid.o)

.data           0x00000000        0x0
 .data          0x00000000        0x0 /Applications/microchip/xc32/v1.40/bin/bin/../../lib/gcc/pic32mx/4.8.3/../../../../pic32mx/lib/libpic32.a(getpid.o)

.bss            0x00000000        0x0
 .bss           0x00000000        0x0 /Applications/microchip/xc32/v1.40/bin/bin/../../lib/gcc/pic32mx/4.8.3/../../../../pic32mx/lib/libpic32.a(kill.o)

.data           0x00000000        0x0
 .data          0x00000000        0x0 /Applications/microchip/xc32/v1.40/bin/bin/../../lib/gcc/pic32mx/4.8.3/../../../../pic32mx/lib/libpic32.a(kill.o)

.bss            0x00000000        0x0
 .bss           0x00000000        0x0 /Applications/microchip/xc32/v1.40/bin/bin/../../lib/gcc/pic32mx/4.8.3/../../../../pic32mx/lib/libpic32.a(_exit.o)

.data           0x00000000        0x0
 .data          0x00000000        0x0 /Applications/microchip/xc32/v1.40/bin/bin/../../lib/gcc/pic32mx/4.8.3/../../../../pic32mx/lib/libpic32.a(_exit.o)

.bss            0x00000000        0x0
 .bss           0x00000000        0x0 /Applications/microchip/xc32/v1.40/bin/bin/../../lib/gcc/pic32mx/4.8.3/../../../../pic32mx/lib/libpic32.a(default-nmi-handler.o)

.data           0x00000000        0x0
 .data          0x00000000        0x0 /Applications/microchip/xc32/v1.40/bin/bin/../../lib/gcc/pic32mx/4.8.3/../../../../pic32mx/lib/libpic32.a(default-nmi-handler.o)

.bss            0x00000000        0x0
 .bss           0x00000000        0x0 /Applications/microchip/xc32/v1.40/bin/bin/../../lib/gcc/pic32mx/4.8.3/../../../../pic32mx/lib/libpic32.a(default-on-bootstrap.o)

.data           0x00000000        0x0
 .data          0x00000000        0x0 /Applications/microchip/xc32/v1.40/bin/bin/../../lib/gcc/pic32mx/4.8.3/../../../../pic32mx/lib/libpic32.a(default-on-bootstrap.o)

.bss            0x00000000        0x0
 .bss           0x00000000        0x0 /Applications/microchip/xc32/v1.40/bin/bin/../../lib/gcc/pic32mx/4.8.3/../../../../pic32mx/lib/libpic32.a(default-on-reset.o)

.data           0x00000000        0x0
 .data          0x00000000        0x0 /Applications/microchip/xc32/v1.40/bin/bin/../../lib/gcc/pic32mx/4.8.3/../../../../pic32mx/lib/libpic32.a(default-on-reset.o)

.bss            0x00000000        0x0
 .bss           0x00000000        0x0 /Applications/microchip/xc32/v1.40/bin/bin/../../lib/gcc/pic32mx/4.8.3/../../../../pic32mx/lib/libpic32.a(default-bootstrap-exception-handler.o)

.data           0x00000000        0x0
 .data          0x00000000        0x0 /Applications/microchip/xc32/v1.40/bin/bin/../../lib/gcc/pic32mx/4.8.3/../../../../pic32mx/lib/libpic32.a(default-bootstrap-exception-handler.o)

.data           0x00000000        0x0
 .data          0x00000000        0x0 /Applications/microchip/xc32/v1.40/bin/bin/../../lib/gcc/pic32mx/4.8.3/../../../../pic32mx/lib/libpic32.a(sbrk.o)

.data           0x00000000        0x0
 .data          0x00000000        0x0 /Applications/microchip/xc32/v1.40/bin/bin/../../lib/gcc/pic32mx/4.8.3/libgcc.a(unwind-sjlj.o)

.bss            0x00000000        0x0
 .bss           0x00000000        0x0 /Applications/microchip/xc32/v1.40/bin/bin/../../lib/gcc/pic32mx/4.8.3/libgcc.a(floatunsisf.o)

.data           0x00000000        0x0
 .data          0x00000000        0x0 /Applications/microchip/xc32/v1.40/bin/bin/../../lib/gcc/pic32mx/4.8.3/libgcc.a(floatunsisf.o)

.bss            0x00000000        0x0
 .bss           0x00000000        0x0 /Applications/microchip/xc32/v1.40/bin/bin/../../lib/gcc/pic32mx/4.8.3/libgcc.a(_moddi3.o)

.data           0x00000000        0x0
 .data          0x00000000        0x0 /Applications/microchip/xc32/v1.40/bin/bin/../../lib/gcc/pic32mx/4.8.3/libgcc.a(_moddi3.o)

.bss            0x00000000        0x0
 .bss           0x00000000        0x0 /Applications/microchip/xc32/v1.40/bin/bin/../../lib/gcc/pic32mx/4.8.3/libgcc.a(_divdi3.o)

.data           0x00000000        0x0
 .data          0x00000000        0x0 /Applications/microchip/xc32/v1.40/bin/bin/../../lib/gcc/pic32mx/4.8.3/libgcc.a(_divdi3.o)

.bss            0x00000000        0x0
 .bss           0x00000000        0x0 /Applications/microchip/xc32/v1.40/bin/bin/../../lib/gcc/pic32mx/4.8.3/../../../../pic32mx/lib/./proc/32MX270F256D/processor.o

.data           0x00000000        0x0
 .data          0x00000000        0x0 /Applications/microchip/xc32/v1.40/bin/bin/../../lib/gcc/pic32mx/4.8.3/../../../../pic32mx/lib/./proc/32MX270F256D/processor.o

.bss            0x00000000        0x0
 .bss           0x00000000        0x0 /Applications/microchip/xc32/v1.40/bin/bin/../../lib/gcc/pic32mx/4.8.3/../../../../pic32mx/lib/pic32_software_reset.o

.data           0x00000000        0x0
 .data          0x00000000        0x0 /Applications/microchip/xc32/v1.40/bin/bin/../../lib/gcc/pic32mx/4.8.3/../../../../pic32mx/lib/pic32_software_reset.o

.bss            0x00000000        0x0
 .bss           0x00000000        0x0 /Applications/microchip/xc32/v1.40/bin/bin/../../lib/gcc/pic32mx/4.8.3/../../../../pic32mx/lib/./proc/32MX270F256D/default_isr_vectors.o

.data           0x00000000        0x0
 .data          0x00000000        0x0 /Applications/microchip/xc32/v1.40/bin/bin/../../lib/gcc/pic32mx/4.8.3/../../../../pic32mx/lib/./proc/32MX270F256D/default_isr_vectors.o

.bss            0x00000000        0x0
 .bss           0x00000000        0x0 /Applications/microchip/xc32/v1.40/bin/bin/../../lib/gcc/pic32mx/4.8.3/../../../../pic32mx/lib/libxcpp.a(strchr.o)

.data           0x00000000        0x0
 .data          0x00000000        0x0 /Applications/microchip/xc32/v1.40/bin/bin/../../lib/gcc/pic32mx/4.8.3/../../../../pic32mx/lib/libxcpp.a(strchr.o)

.bss            0x00000000        0x0
 .bss           0x00000000        0x0 /Applications/microchip/xc32/v1.40/bin/bin/../../lib/gcc/pic32mx/4.8.3/../../../../pic32mx/lib/libxcpp.a(xgetmem.o)

.data           0x00000000        0x0
 .data          0x00000000        0x0 /Applications/microchip/xc32/v1.40/bin/bin/../../lib/gcc/pic32mx/4.8.3/../../../../pic32mx/lib/libxcpp.a(xgetmem.o)

.bss            0x00000000        0x0
 .bss           0x00000000        0x0 /Applications/microchip/xc32/v1.40/bin/bin/../../lib/gcc/pic32mx/4.8.3/../../../../pic32mx/lib/libxcpp.a(xexit.o)

.data           0x00000000        0x0
 .data          0x00000000        0x0 /Applications/microchip/xc32/v1.40/bin/bin/../../lib/gcc/pic32mx/4.8.3/../../../../pic32mx/lib/libxcpp.a(xexit.o)

.bss            0x00000000        0x0
 .bss           0x00000000        0x0 /Applications/microchip/xc32/v1.40/bin/bin/../../lib/gcc/pic32mx/4.8.3/../../../../pic32mx/lib/libxcpp.a(xdint.o)

.data           0x00000000        0x0
 .data          0x00000000        0x0 /Applications/microchip/xc32/v1.40/bin/bin/../../lib/gcc/pic32mx/4.8.3/../../../../pic32mx/lib/libxcpp.a(xdint.o)

.bss            0x00000000        0x0
 .bss           0x00000000        0x0 /Applications/microchip/xc32/v1.40/bin/bin/../../lib/gcc/pic32mx/4.8.3/../../../../pic32mx/lib/libxcpp.a(strstr.o)

.data           0x00000000        0x0
 .data          0x00000000        0x0 /Applications/microchip/xc32/v1.40/bin/bin/../../lib/gcc/pic32mx/4.8.3/../../../../pic32mx/lib/libxcpp.a(strstr.o)

.bss            0x00000000        0x0
 .bss           0x00000000        0x0 /Applications/microchip/xc32/v1.40/bin/bin/../../lib/gcc/pic32mx/4.8.3/../../../../pic32mx/lib/libxcpp.a(strlen.o)

.data           0x00000000        0x0
 .data          0x00000000        0x0 /Applications/microchip/xc32/v1.40/bin/bin/../../lib/gcc/pic32mx/4.8.3/../../../../pic32mx/lib/libxcpp.a(strlen.o)

.bss            0x00000000        0x0
 .bss           0x00000000        0x0 /Applications/microchip/xc32/v1.40/bin/bin/../../lib/gcc/pic32mx/4.8.3/../../../../pic32mx/lib/libxcpp.a(strcmp.o)

.data           0x00000000        0x0
 .data          0x00000000        0x0 /Applications/microchip/xc32/v1.40/bin/bin/../../lib/gcc/pic32mx/4.8.3/../../../../pic32mx/lib/libxcpp.a(strcmp.o)

.bss            0x00000000        0x0
 .bss           0x00000000        0x0 /Applications/microchip/xc32/v1.40/bin/bin/../../lib/gcc/pic32mx/4.8.3/../../../../pic32mx/lib/libxcpp.a(round.o)

.data           0x00000000        0x0
 .data          0x00000000        0x0 /Applications/microchip/xc32/v1.40/bin/bin/../../lib/gcc/pic32mx/4.8.3/../../../../pic32mx/lib/libxcpp.a(round.o)

.bss            0x00000000        0x0
 .bss           0x00000000        0x0 /Applications/microchip/xc32/v1.40/bin/bin/../../lib/gcc/pic32mx/4.8.3/../../../../pic32mx/lib/libxcpp.a(raise.o)

.data           0x00000000        0x0
 .data          0x00000000        0x0 /Applications/microchip/xc32/v1.40/bin/bin/../../lib/gcc/pic32mx/4.8.3/../../../../pic32mx/lib/libxcpp.a(raise.o)

.bss            0x00000000        0x0
 .bss           0x00000000        0x0 /Applications/microchip/xc32/v1.40/bin/bin/../../lib/gcc/pic32mx/4.8.3/../../../../pic32mx/lib/libxcpp.a(memset.o)

.data           0x00000000        0x0
 .data          0x00000000        0x0 /Applications/microchip/xc32/v1.40/bin/bin/../../lib/gcc/pic32mx/4.8.3/../../../../pic32mx/lib/libxcpp.a(memset.o)

.bss            0x00000000        0x0
 .bss           0x00000000        0x0 /Applications/microchip/xc32/v1.40/bin/bin/../../lib/gcc/pic32mx/4.8.3/../../../../pic32mx/lib/libxcpp.a(memcpy.o)

.data           0x00000000        0x0
 .data          0x00000000        0x0 /Applications/microchip/xc32/v1.40/bin/bin/../../lib/gcc/pic32mx/4.8.3/../../../../pic32mx/lib/libxcpp.a(memcpy.o)

.bss            0x00000000        0x0
 .bss           0x00000000        0x0 /Applications/microchip/xc32/v1.40/bin/bin/../../lib/gcc/pic32mx/4.8.3/../../../../pic32mx/lib/libxcpp.a(free.o)

.data           0x00000000        0x0
 .data          0x00000000        0x0 /Applications/microchip/xc32/v1.40/bin/bin/../../lib/gcc/pic32mx/4.8.3/../../../../pic32mx/lib/libxcpp.a(free.o)

.bss            0x00000000        0x0
 .bss           0x00000000        0x0 /Applications/microchip/xc32/v1.40/bin/bin/../../lib/gcc/pic32mx/4.8.3/../../../../pic32mx/lib/libxcpp.a(abs.o)

.data           0x00000000        0x0
 .data          0x00000000        0x0 /Applications/microchip/xc32/v1.40/bin/bin/../../lib/gcc/pic32mx/4.8.3/../../../../pic32mx/lib/libxcpp.a(abs.o)

.bss            0x00000000        0x0
 .bss           0x00000000        0x0 /Applications/microchip/xc32/v1.40/bin/bin/../../lib/gcc/pic32mx/4.8.3/../../../../pic32mx/lib/libxcpp.a(abort.o)

.data           0x00000000        0x0
 .data          0x00000000        0x0 /Applications/microchip/xc32/v1.40/bin/bin/../../lib/gcc/pic32mx/4.8.3/../../../../pic32mx/lib/libxcpp.a(abort.o)

.bss            0x00000000        0x0
 .bss           0x00000000        0x0 /Applications/microchip/xc32/v1.40/bin/bin/../../lib/gcc/pic32mx/4.8.3/../../../../pic32mx/lib/libsupc++.a(eh_term_handler.o)

.data           0x00000000        0x0
 .data          0x00000000        0x0 /Applications/microchip/xc32/v1.40/bin/bin/../../lib/gcc/pic32mx/4.8.3/../../../../pic32mx/lib/libsupc++.a(eh_term_handler.o)

.bss            0x00000000        0x0
 .bss           0x00000000        0x0 /Applications/microchip/xc32/v1.40/bin/bin/../../lib/gcc/pic32mx/4.8.3/../../../../pic32mx/lib/libsupc++.a(eh_globals.o)

.data           0x00000000        0x0
 .data          0x00000000        0x0 /Applications/microchip/xc32/v1.40/bin/bin/../../lib/gcc/pic32mx/4.8.3/../../../../pic32mx/lib/libsupc++.a(eh_globals.o)

.bss            0x00000000        0x0
 .bss           0x00000000        0x0 /Applications/microchip/xc32/v1.40/bin/bin/../../lib/gcc/pic32mx/4.8.3/../../../../pic32mx/lib/libsupc++.a(eh_exception.o)

.data           0x00000000        0x0
 .data          0x00000000        0x0 /Applications/microchip/xc32/v1.40/bin/bin/../../lib/gcc/pic32mx/4.8.3/../../../../pic32mx/lib/libsupc++.a(eh_exception.o)

.bss            0x00000000        0x0
 .bss           0x00000000        0x0 /Applications/microchip/xc32/v1.40/bin/bin/../../lib/gcc/pic32mx/4.8.3/../../../../pic32mx/lib/libsupc++.a(eh_catch.o)

.data           0x00000000        0x0
 .data          0x00000000        0x0 /Applications/microchip/xc32/v1.40/bin/bin/../../lib/gcc/pic32mx/4.8.3/../../../../pic32mx/lib/libsupc++.a(eh_catch.o)

.bss            0x00000000        0x0
 .bss           0x00000000        0x0 /Applications/microchip/xc32/v1.40/bin/bin/../../lib/gcc/pic32mx/4.8.3/../../../../pic32mx/lib/libsupc++.a(eh_call.o)

.data           0x00000000        0x0
 .data          0x00000000        0x0 /Applications/microchip/xc32/v1.40/bin/bin/../../lib/gcc/pic32mx/4.8.3/../../../../pic32mx/lib/libsupc++.a(eh_call.o)

.bss            0x00000000        0x0
 .bss           0x00000000        0x0 /Applications/microchip/xc32/v1.40/bin/bin/../../lib/gcc/pic32mx/4.8.3/../../../../pic32mx/lib/libsupc++.a(eh_alloc.o)

.data           0x00000000        0x0
 .data          0x00000000        0x0 /Applications/microchip/xc32/v1.40/bin/bin/../../lib/gcc/pic32mx/4.8.3/../../../../pic32mx/lib/libsupc++.a(eh_alloc.o)

.bss            0x00000000        0x0
 .bss           0x00000000        0x0 /Applications/microchip/xc32/v1.40/bin/bin/../../lib/gcc/pic32mx/4.8.3/../../../../pic32mx/lib/libsupc++.a(pure.o)

.data           0x00000000        0x0
 .data          0x00000000        0x0 /Applications/microchip/xc32/v1.40/bin/bin/../../lib/gcc/pic32mx/4.8.3/../../../../pic32mx/lib/libsupc++.a(pure.o)

.bss            0x00000000        0x0
 .bss           0x00000000        0x0 /Applications/microchip/xc32/v1.40/bin/bin/../../lib/gcc/pic32mx/4.8.3/../../../../pic32mx/lib/libsupc++.a(tinfo.o)

.data           0x00000000        0x0
 .data          0x00000000        0x0 /Applications/microchip/xc32/v1.40/bin/bin/../../lib/gcc/pic32mx/4.8.3/../../../../pic32mx/lib/libsupc++.a(tinfo.o)

.bss            0x00000000        0x0
 .bss           0x00000000        0x0 /Applications/microchip/xc32/v1.40/bin/bin/../../lib/gcc/pic32mx/4.8.3/../../../../pic32mx/lib/libsupc++.a(si_class_type_info.o)

.data           0x00000000        0x0
 .data          0x00000000        0x0 /Applications/microchip/xc32/v1.40/bin/bin/../../lib/gcc/pic32mx/4.8.3/../../../../pic32mx/lib/libsupc++.a(si_class_type_info.o)

.bss            0x00000000        0x0
 .bss           0x00000000        0x0 /Applications/microchip/xc32/v1.40/bin/bin/../../lib/gcc/pic32mx/4.8.3/../../../../pic32mx/lib/libsupc++.a(eh_unex_handler.o)

.data           0x00000000        0x0
 .data          0x00000000        0x0 /Applications/microchip/xc32/v1.40/bin/bin/../../lib/gcc/pic32mx/4.8.3/../../../../pic32mx/lib/libsupc++.a(eh_unex_handler.o)

.bss            0x00000000        0x0
 .bss           0x00000000        0x0 /Applications/microchip/xc32/v1.40/bin/bin/../../lib/gcc/pic32mx/4.8.3/../../../../pic32mx/lib/libsupc++.a(eh_throw.o)

.data           0x00000000        0x0
 .data          0x00000000        0x0 /Applications/microchip/xc32/v1.40/bin/bin/../../lib/gcc/pic32mx/4.8.3/../../../../pic32mx/lib/libsupc++.a(eh_throw.o)

.bss            0x00000000        0x0
 .bss           0x00000000        0x0 /Applications/microchip/xc32/v1.40/bin/bin/../../lib/gcc/pic32mx/4.8.3/../../../../pic32mx/lib/libsupc++.a(eh_terminate.o)

.data           0x00000000        0x0
 .data          0x00000000        0x0 /Applications/microchip/xc32/v1.40/bin/bin/../../lib/gcc/pic32mx/4.8.3/../../../../pic32mx/lib/libsupc++.a(eh_terminate.o)

.bss            0x00000000        0x0
 .bss           0x00000000        0x0 /Applications/microchip/xc32/v1.40/bin/bin/../../lib/gcc/pic32mx/4.8.3/../../../../pic32mx/lib/libsupc++.a(eh_personality.o)

.data           0x00000000        0x0
 .data          0x00000000        0x0 /Applications/microchip/xc32/v1.40/bin/bin/../../lib/gcc/pic32mx/4.8.3/../../../../pic32mx/lib/libsupc++.a(eh_personality.o)

.bss            0x00000000        0x0
 .bss           0x00000000        0x0 /Applications/microchip/xc32/v1.40/bin/bin/../../lib/gcc/pic32mx/4.8.3/../../../../pic32mx/lib/libsupc++.a(class_type_info.o)

.data           0x00000000        0x0
 .data          0x00000000        0x0 /Applications/microchip/xc32/v1.40/bin/bin/../../lib/gcc/pic32mx/4.8.3/../../../../pic32mx/lib/libsupc++.a(class_type_info.o)

.bss            0x00000000        0x0
 .bss           0x00000000        0x0 build/default/production/_ext/1360937237/AXbee.o

.bss            0x00000000        0x0
 .bss           0x00000000        0x0 build/default/production/_ext/1360937237/MTemp.o

.bss            0x00000000        0x0
 .bss           0x00000000        0x0 build/default/production/_ext/1360937237/AESP8266.o

.bss            0x00000000        0x0
 .bss           0x00000000        0x0 build/default/production/_ext/1360937237/Ap32mx270f256d.o

.data           0x00000000        0x0
 .data          0x00000000        0x0 build/default/production/_ext/1360937237/Ap32mx270f256d.o

.bss            0x00000000        0x0
 .bss           0x00000000        0x0 build/default/production/_ext/1360937237/ATime.o

.bss            0x00000000        0x0
 .bss           0x00000000        0x0 build/default/production/_ext/1360937237/AString.o

.bss            0x00000000        0x0
 .bss           0x00000000        0x0 build/default/production/_ext/1360937237/APorts.o

.bss            0x00000000        0x0
 .bss           0x00000000        0x0 build/default/production/_ext/1360937237/APCF8563.o

.bss            0x00000000        0x0
 .bss           0x00000000        0x0 build/default/production/_ext/1360937237/ALcd.o

.bss            0x00000000        0x0
 .bss           0x00000000        0x0 build/default/production/_ext/1360937237/AInterruptSource.o

.bss            0x00000000        0x0
 .bss           0x00000000        0x0 build/default/production/_ext/1360937237/AErrorNotifier.o

.data           0x00000000        0x0
 .data          0x00000000        0x0 build/default/production/_ext/1360937237/AErrorNotifier.o

.bss            0x00000000        0x0
 .bss           0x00000000        0x0 build/default/production/_ext/1360937237/ADateTime.o

.bss            0x00000000        0x0
 .bss           0x00000000        0x0 build/default/production/_ext/1360937237/AConfigurationBits.o

.data           0x00000000        0x0
 .data          0x00000000        0x0 build/default/production/_ext/1360937237/AConfigurationBits.o

.bss            0x00000000        0x0
 .bss           0x00000000        0x0 build/default/production/_ext/1360937237/A24LC512.o

.bss            0x00000000        0x0
 .bss           0x00000000        0x0 build/default/production/main.o

.tm_clone_table
                0x00000000        0x0
 .tm_clone_table
                0x00000000        0x0 /Applications/microchip/xc32/v1.40/bin/bin/../../lib/gcc/pic32mx/4.8.3/crtbegin.o

.bss            0x00000000        0x0
 .bss           0x00000000        0x0 /Applications/microchip/xc32/v1.40/bin/bin/../../lib/gcc/pic32mx/4.8.3/crti.o

.data           0x00000000        0x0
 .data          0x00000000        0x0 /Applications/microchip/xc32/v1.40/bin/bin/../../lib/gcc/pic32mx/4.8.3/crti.o

.bss            0x00000000        0x0
 .bss           0x00000000        0x0 /Applications/microchip/xc32/v1.40/bin/bin/../../lib/gcc/pic32mx/4.8.3/../../../../pic32mx/lib/./proc/32MX270F256D/cpprt0_mips32r2.o

.data           0x00000000        0x0
 .data          0x00000000        0x0 /Applications/microchip/xc32/v1.40/bin/bin/../../lib/gcc/pic32mx/4.8.3/../../../../pic32mx/lib/./proc/32MX270F256D/cpprt0_mips32r2.o

.text           0x9d002c94    0x11fd8
 .text          0x9d002c94     0x3d10 build/default/production/_ext/1360937237/AString.o
                0x9d002c94                AFramework::AString::strlen(char const*)
                0x9d002d00                AFramework::AString::AString()
                0x9d002d00                AFramework::AString::AString()
                0x9d002d5c                AFramework::AString::AString(AFramework::AString const&)
                0x9d002d5c                AFramework::AString::AString(AFramework::AString const&)
                0x9d002da4                AFramework::AString::AString(char const*)
                0x9d002da4                AFramework::AString::AString(char const*)
                0x9d002fb4                AFramework::AString::AString(int const&)
                0x9d002fb4                AFramework::AString::AString(int const&)
                0x9d00313c                AFramework::AString::AString(float const&, unsigned char const&)
                0x9d00313c                AFramework::AString::AString(float const&, unsigned char const&)
                0x9d0032d0                AFramework::AString::AString(double const&, unsigned char const&)
                0x9d0032d0                AFramework::AString::AString(double const&, unsigned char const&)
                0x9d003464                AFramework::AString::~AString()
                0x9d003464                AFramework::AString::~AString()
                0x9d0034ac                AFramework::AString::remove(AFramework::AString const&, bool const&)
                0x9d003688                AFramework::AString::remove(char const&, bool const&)
                0x9d003854                AFramework::AString::contains(AFramework::AString const&, bool const&) const
                0x9d0038b4                AFramework::AString::contains(char const&, bool const&) const
                0x9d003914                AFramework::AString::compare(AFramework::AString const&, bool const&) const
                0x9d003994                AFramework::AString::compare(char const&, bool const&) const
                0x9d003a04                AFramework::AString::replace(AFramework::AString const&, AFramework::AString const&, bool const&)
                0x9d003c88                AFramework::AString::replace(char const&, char const&, bool const&)
                0x9d003d20                AFramework::AString::indexOf(AFramework::AString const&, unsigned int const&, bool const&) const
                0x9d003f80                AFramework::AString::indexOf(char const&, unsigned int const&, bool const&) const
                0x9d0040a8                AFramework::AString::right(unsigned int) const
                0x9d004358                AFramework::AString::left(unsigned int) const
                0x9d0045f4                AFramework::AString::insert(AFramework::AString const&, unsigned int const&)
                0x9d004838                AFramework::AString::insert(AFramework::AString const&, AFramework::AString const&, bool const&)
                0x9d0048e4                AFramework::AString::insert(char const&, unsigned int const&)
                0x9d004ac4                AFramework::AString::append(AFramework::AString const&)
                0x9d004b10                AFramework::AString::append(char const&)
                0x9d004b5c                AFramework::AString::prepend(AFramework::AString const&)
                0x9d004ba8                AFramework::AString::prepend(char const&)
                0x9d004bf4                AFramework::AString::toLower()
                0x9d004c9c                AFramework::AString::toUpper()
                0x9d004d44                AFramework::AString::reverse()
                0x9d004e18                AFramework::AString::size() const
                0x9d004e44                AFramework::AString::isEmpty() const
                0x9d004e78                AFramework::AString::clear()
                0x9d004ef8                AFramework::AString::at(unsigned int const&) const
                0x9d004fd0                AFramework::AString::startsWith(AFramework::AString const&, bool const&)
                0x9d00502c                AFramework::AString::startsWith(char const&, bool const&)
                0x9d005088                AFramework::AString::endsWith(AFramework::AString const&, bool const&)
                0x9d005114                AFramework::AString::endsWith(char const&, bool const&)
                0x9d0051a0                AFramework::AString::toInt32(bool&) const
                0x9d0052f8                AFramework::AString::toFloat(bool&) const
                0x9d005558                AFramework::AString::toDouble(bool&) const
                0x9d0057b8                AFramework::AString::c_str() const
                0x9d0057e4                AFramework::AString::split(char const&, bool const&, bool const&) const
                0x9d005df4                AFramework::AString::operator[](unsigned int const&) const
                0x9d005e34                AFramework::AString::operator==(AFramework::AString const&) const
                0x9d005e80                AFramework::AString::operator==(char const&) const
                0x9d005ecc                AFramework::AString::operator!=(AFramework::AString const&) const
                0x9d005f20                AFramework::AString::operator!=(char const&) const
                0x9d005f74                AFramework::AString::operator+=(AFramework::AString const&)
                0x9d005fb4                AFramework::AString::operator+=(char const&)
                0x9d005ff4                AFramework::AString::operator-=(AFramework::AString const&)
                0x9d006040                AFramework::AString::operator-=(char const&)
                0x9d00608c                AFramework::AString::operator+(AFramework::AString const&)
                0x9d0061ec                AFramework::AString::operator+(char const&)
                0x9d006320                AFramework::AString::operator-(AFramework::AString const&)
                0x9d006480                AFramework::AString::operator-(char const&)
                0x9d0065c0                AFramework::AString::operator=(AFramework::AString const&)
                0x9d0066fc                AFramework::AString::operator=(char const&)
                0x9d006780                AFramework::AString::ccmp(char const&, char const&, bool const&)
                0x9d006930                AFramework::AString::ptrswp(char*, unsigned int const&)
 .text          0x9d0069a4     0x3b94 build/default/production/_ext/1360937237/AESP8266.o
                0x9d0069a4                AFramework::AESP8266::AESP8266(AFramework::AUARTDriver*, AFramework::AUARTDriver::Baud)
                0x9d0069a4                AFramework::AESP8266::AESP8266(AFramework::AUARTDriver*, AFramework::AUARTDriver::Baud)
                0x9d006a8c                AFramework::AESP8266::isOk(unsigned int) const
                0x9d006b28                AFramework::AESP8266::reset(unsigned int) const
                0x9d006bc4                AFramework::AESP8266::setEcho(bool, unsigned int) const
                0x9d006c88                AFramework::AESP8266::version(AFramework::AString&, unsigned int) const
                0x9d007110                AFramework::AESP8266::setMode(AFramework::AESP8266::ESPMode, bool, unsigned int) const
                0x9d0073b0                AFramework::AESP8266::configureAP(AFramework::AString const&, AFramework::AString const&, unsigned char, unsigned int) const
                0x9d007840                AFramework::AESP8266::joinAP(AFramework::AString const&, AFramework::AString const&, unsigned int) const
                0x9d007bc8                AFramework::AESP8266::leaveAP(unsigned int) const
                0x9d007c64                AFramework::AESP8266::availableAP(AFramework::AString&, unsigned int) const
                0x9d007e38                AFramework::AESP8266::setDhcp(bool, AFramework::AESP8266::ESPMode, unsigned int) const
                0x9d008384                AFramework::AESP8266::setIp(AFramework::AString const&, AFramework::AESP8266::ESPMode, unsigned int) const
                0x9d0087b0                AFramework::AESP8266::ip(AFramework::AString&, AFramework::AESP8266::ESPMode, unsigned int) const
                0x9d008fe8                AFramework::AESP8266::setMultipleConnections(bool, unsigned int) const
                0x9d0092dc                AFramework::AESP8266::openServer(unsigned short, unsigned int, unsigned int) const
                0x9d009768                AFramework::AESP8266::prepareForReceive() const
                0x9d0097d0                AFramework::AESP8266::waitForData(AFramework::AString&, unsigned int) const
                0x9d009d94                AFramework::AESP8266::send(AFramework::AString const&, unsigned char) const
                0x9d00a17c                AFramework::AESP8266::wdttmr(char const*, unsigned int) const
 .text          0x9d00a538     0x1f48 build/default/production/_ext/1360937237/ATime.o
                0x9d00a538                AFramework::ATime::ATime()
                0x9d00a538                AFramework::ATime::ATime()
                0x9d00a570                AFramework::ATime::ATime(unsigned int, unsigned char, unsigned char, unsigned char, unsigned short, bool)
                0x9d00a570                AFramework::ATime::ATime(unsigned int, unsigned char, unsigned char, unsigned char, unsigned short, bool)
                0x9d00a608                AFramework::ATime::setTime(unsigned int, unsigned char, unsigned char, unsigned char, unsigned short, bool)
                0x9d00a770                AFramework::ATime::negative()
                0x9d00a7fc                AFramework::ATime::posivite()
                0x9d00a878                AFramework::ATime::isNegative()
                0x9d00a8b0                AFramework::ATime::isPosivite()
                0x9d00a8ec                AFramework::ATime::setDays(unsigned int)
                0x9d00a930                AFramework::ATime::setHours(unsigned char)
                0x9d00a998                AFramework::ATime::setMinutes(unsigned char)
                0x9d00aa00                AFramework::ATime::setSeconds(unsigned char)
                0x9d00aa68                AFramework::ATime::setMSeconds(unsigned short)
                0x9d00aad0                AFramework::ATime::days() const
                0x9d00ab3c                AFramework::ATime::hours() const
                0x9d00abe0                AFramework::ATime::minutes() const
                0x9d00ac80                AFramework::ATime::seconds() const
                0x9d00ad1c                AFramework::ATime::mseconds() const
                0x9d00ad88                AFramework::ATime::addDays(unsigned int)
                0x9d00ae04                AFramework::ATime::addHours(unsigned int)
                0x9d00aea0                AFramework::ATime::addMinutes(unsigned int)
                0x9d00af3c                AFramework::ATime::addSeconds(unsigned int)
                0x9d00afc8                AFramework::ATime::addMseconds(unsigned int)
                0x9d00b038                AFramework::ATime::subDays(unsigned int)
                0x9d00b0b4                AFramework::ATime::subHours(unsigned int)
                0x9d00b150                AFramework::ATime::subMinutes(unsigned int)
                0x9d00b1ec                AFramework::ATime::subSeconds(unsigned int)
                0x9d00b278                AFramework::ATime::subMseconds(unsigned int)
                0x9d00b2e8                AFramework::ATime::operator<(AFramework::ATime const&) const
                0x9d00b358                AFramework::ATime::operator<(int) const
                0x9d00b3cc                AFramework::ATime::operator>(AFramework::ATime const&) const
                0x9d00b43c                AFramework::ATime::operator>(int) const
                0x9d00b4b0                AFramework::ATime::operator=(AFramework::ATime const&)
                0x9d00b504                AFramework::ATime::operator=(int)
                0x9d00b54c                AFramework::ATime::operator<=(AFramework::ATime const&) const
                0x9d00b5bc                AFramework::ATime::operator<=(int) const
                0x9d00b630                AFramework::ATime::operator>=(AFramework::ATime const&) const
                0x9d00b6a0                AFramework::ATime::operator>=(int) const
                0x9d00b714                AFramework::ATime::operator+=(AFramework::ATime const&)
                0x9d00b788                AFramework::ATime::operator+=(int)
                0x9d00b800                AFramework::ATime::operator-=(AFramework::ATime const&)
                0x9d00b874                AFramework::ATime::operator-=(int)
                0x9d00b8ec                AFramework::ATime::operator++()
                0x9d00b958                AFramework::ATime::operator++(int)
                0x9d00b9f4                AFramework::ATime::operator--()
                0x9d00ba60                AFramework::ATime::operator--(int)
                0x9d00bafc                AFramework::ATime::operator==(AFramework::ATime const&) const
                0x9d00bb50                AFramework::ATime::operator==(int) const
                0x9d00bba8                AFramework::ATime::operator!=(AFramework::ATime const&) const
                0x9d00bbfc                AFramework::ATime::operator!=(int) const
                0x9d00bc54                AFramework::ATime::prvdd(unsigned int)
                0x9d00bd9c                AFramework::ATime::prvhh(unsigned char)
                0x9d00bf3c                AFramework::ATime::prvmm(unsigned char)
                0x9d00c0d8                AFramework::ATime::prvss(unsigned char)
                0x9d00c248                AFramework::ATime::prvms(unsigned short)
                0x9d00c360                AFramework::operator+(AFramework::ATime const&, AFramework::ATime const&)
                0x9d00c3f0                AFramework::operator-(AFramework::ATime const&, AFramework::ATime const&)
 .text          0x9d00c480     0x1408 build/default/production/_ext/1360937237/ACore.o
                0x9d00c480                AFramework::System::ACoreTimer::ACoreTimer(unsigned char, unsigned char, unsigned char, unsigned int, unsigned int, unsigned int, unsigned int)
                0x9d00c480                AFramework::System::ACoreTimer::ACoreTimer(unsigned char, unsigned char, unsigned char, unsigned int, unsigned int, unsigned int, unsigned int)
                0x9d00c504                AFramework::System::ACoreTimer::ctopen(unsigned int)
                0x9d00c538                AFramework::System::ACoreTimer::ctsync(unsigned int)
                0x9d00c580                AFramework::System::ACoreTimer::ctconf(unsigned int)
                0x9d00c5c8                CoreTimerHandler
                0x9d00c6fc                operator new(unsigned long)
                0x9d00c734                operator new[](unsigned long)
                0x9d00c76c                operator delete(void*)
                0x9d00c7a4                operator delete[](void*)
                0x9d00c7dc                AFramework::System::Segment::data()
                0x9d00c80c                AFramework::System::Segment::vNext()
                0x9d00c858                AFramework::System::init(unsigned long, AFramework::AHardwarePort volatile*, unsigned int, double const&, double const&, double const&)
                0x9d00cb08                AFramework::System::kill()
                0x9d00cb40                AFramework::System::free(void*)
                0x9d00cdf8                AFramework::System::memstat()
                0x9d00ce24                AFramework::System::heapSize()
                0x9d00ce48                AFramework::System::malloc(unsigned long)
                0x9d00d0b8                AFramework::System::priFrequency()
                0x9d00d0dc                AFramework::System::priPeriod()
                0x9d00d144                AFramework::System::secFrequency()
                0x9d00d168                AFramework::System::secPeriod()
                0x9d00d1d0                AFramework::System::busFrequency()
                0x9d00d1f4                AFramework::System::busPeriod()
                0x9d00d25c                AFramework::System::enableInterrupt()
                0x9d00d288                AFramework::System::disableInterrupt()
                0x9d00d2b4                AFramework::System::updateTime()
                0x9d00d3c4                AFramework::System::delay(unsigned int)
                0x9d00d448                AFramework::System::currentCentury()
                0x9d00d46c                AFramework::System::outputMap(unsigned int, unsigned int)
                0x9d00d548                AFramework::System::inputMap(unsigned int, unsigned int)
                0x9d00d604                AFramework::System::aliveTime()
                0x9d00d650                AFramework::System::scsusp()
                0x9d00d670                AFramework::System::scwake()
                0x9d00d690                AFramework::System::chkspc(unsigned long, bool const&)
 .text          0x9d00d888      0xfb4 build/default/production/_ext/1360937237/ATimers.o
                0x9d00d888                AFramework::AAbstract16bitTimer::AAbstract16bitTimer(AFramework::ATMR_w volatile*)
                0x9d00d888                AFramework::AAbstract16bitTimer::AAbstract16bitTimer(AFramework::ATMR_w volatile*)
                0x9d00d8e0                AFramework::AAbstract16bitTimer::setSynchronousInternal16(double, bool) volatile
                0x9d00d98c                AFramework::AAbstract16bitTimer::setSynchronousExternal16(double, double, bool) volatile
                0x9d00da28                AFramework::AAbstract16bitTimer::setGated16(double, bool) volatile
                0x9d00dad4                AFramework::AAbstract16bitTimer::open() volatile
                0x9d00db34                AFramework::AAbstract16bitTimer::close() volatile
                0x9d00db68                AFramework::AAbstract16bitTimer::clear() volatile
                0x9d00dba0                AFramework::AAbstract16bitTimer::reset() volatile
                0x9d00dc00                AFramework::AAbstract16bitTimer::isOpen() const volatile
                0x9d00dc3c                AFramework::AAbstract16bitTimer::rawTime() const volatile
                0x9d00dc6c                AFramework::AAbstract16bitTimer::elapsedTime() const volatile
                0x9d00dccc                AFramework::AAbstract16bitTimer::error() const volatile
                0x9d00dcf8                AFramework::AAbstract16bitTimer::resolution() const volatile
                0x9d00dd24                AFramework::AAbstract16bitTimer::rawConfig(unsigned int) volatile
                0x9d00dd70                AFramework::A16bitMasterTimer::A16bitMasterTimer(AFramework::ATMR_w volatile*)
                0x9d00dd70                AFramework::A16bitMasterTimer::A16bitMasterTimer(AFramework::ATMR_w volatile*)
                0x9d00ddc4                AFramework::A16bitMasterTimer::setAsynchronousExternal16(double, bool) volatile
                0x9d00de04                AFramework::A16bitMasterTimer::setpar(double, double, bool) volatile
                0x9d00e0cc                AFramework::A16bitSlaveTimer::A16bitSlaveTimer(AFramework::ATMR_w volatile*)
                0x9d00e0cc                AFramework::A16bitSlaveTimer::A16bitSlaveTimer(AFramework::ATMR_w volatile*)
                0x9d00e120                AFramework::A16bitSlaveTimer::isBusy() const volatile
                0x9d00e148                AFramework::A16bitSlaveTimer::setpar(double, double, bool) volatile
                0x9d00e470                AFramework::A32bitMasterTimer::A32bitMasterTimer(AFramework::ATMR_w volatile*, AFramework::A16bitSlaveTimer volatile*)
                0x9d00e470                AFramework::A32bitMasterTimer::A32bitMasterTimer(AFramework::ATMR_w volatile*, AFramework::A16bitSlaveTimer volatile*)
                0x9d00e4d4                AFramework::A32bitMasterTimer::setSynchronousInternal32(double, bool) volatile
                0x9d00e5a8                AFramework::A32bitMasterTimer::setSynchronousExternal32(double, double, bool) volatile
                0x9d00e65c                AFramework::A32bitMasterTimer::setGated32(double, bool) volatile
 .text          0x9d00e83c      0xe84 build/default/production/_ext/1360937237/APCF8563.o
                0x9d00e83c                AFramework::APCF8563::APCF8563(AFramework::AI2CDriver volatile*)
                0x9d00e83c                AFramework::APCF8563::APCF8563(AFramework::AI2CDriver volatile*)
                0x9d00e8d8                AFramework::APCF8563::isGood() const
                0x9d00e930                AFramework::APCF8563::seconds() const
                0x9d00e980                AFramework::APCF8563::minutes() const
                0x9d00e9d0                AFramework::APCF8563::hours() const
                0x9d00ea20                AFramework::APCF8563::days() const
                0x9d00ea70                AFramework::APCF8563::weekday() const
                0x9d00eac4                AFramework::APCF8563::month() const
                0x9d00eb14                AFramework::APCF8563::years() const
                0x9d00eb60                AFramework::APCF8563::setTime(AFramework::ADateTime) const
                0x9d00edcc                AFramework::APCF8563::currentTime() const
                0x9d00eed4                AFramework::APCF8563::setAlarm(unsigned char, unsigned char, AFramework::ADateTime::Weekdays) const
                0x9d00f188                AFramework::APCF8563::stopAlarm() const
                0x9d00f40c                AFramework::APCF8563::setClockOut(AFramework::APCF8563::ClockOut)
                0x9d00f4e0                AFramework::APCF8563::bcddec(unsigned char) const
                0x9d00f53c                AFramework::APCF8563::decbcd(unsigned char) const
                0x9d00f5c8                AFramework::APCF8563::readreg(unsigned char) const
 .text          0x9d00f6c0      0xd10 build/default/production/_ext/1360937237/ALcd.o
                0x9d00f6c0                AFramework::ALcd::ALcd(AFramework::AHardwarePort volatile*, unsigned int, AFramework::AHardwarePort volatile*, unsigned int, AFramework::AHardwarePort volatile*, unsigned int, AFramework::AHardwarePort volatile*, unsigned int, AFramework::AHardwarePort volatile*, unsigned int, AFramework::AHardwarePort volatile*, unsigned int, AFramework::AHardwarePort volatile*, unsigned int)
                0x9d00f6c0                AFramework::ALcd::ALcd(AFramework::AHardwarePort volatile*, unsigned int, AFramework::AHardwarePort volatile*, unsigned int, AFramework::AHardwarePort volatile*, unsigned int, AFramework::AHardwarePort volatile*, unsigned int, AFramework::AHardwarePort volatile*, unsigned int, AFramework::AHardwarePort volatile*, unsigned int, AFramework::AHardwarePort volatile*, unsigned int)
                0x9d00f918                AFramework::ALcd::lightOn()
                0x9d00f968                AFramework::ALcd::lightOff()
                0x9d00f9b8                AFramework::ALcd::lightToggle()
                0x9d00fa04                AFramework::ALcd::setCursorMode(AFramework::ALcd::CursorMode)
                0x9d00fb38                AFramework::ALcd::shiftScreen(unsigned char, AFramework::ALcd::Direction)
                0x9d00fc08                AFramework::ALcd::clear()
                0x9d00fc5c                AFramework::ALcd::setLine(unsigned char)
                0x9d00fd00                AFramework::ALcd::shiftCursor(unsigned char, AFramework::ALcd::Direction)
                0x9d00fdd0                AFramework::ALcd::gotoXY(unsigned char, unsigned char)
                0x9d00fe8c                AFramework::ALcd::putchar(char)
                0x9d00fedc                AFramework::ALcd::write(char const*)
                0x9d00ff9c                AFramework::ALcd::cmdwrt(unsigned char, AFramework::LogicLevel, bool)
                0x9d0101cc                AFramework::operator<<(AFramework::ALcd&, char const*)
                0x9d010210                AFramework::operator<<(AFramework::ALcd&, AFramework::AString const&)
                0x9d010260                AFramework::operator<<(AFramework::ALcd&, unsigned char)
 .text          0x9d0103d0      0xbe8 build/default/production/_ext/1360937237/AUARTDriver.o
                0x9d0103d0                pow10(unsigned int)
                0x9d010454                AFramework::AUARTDriver::AUARTDriver(AFramework::AUART_w volatile*, AFramework::AInterruptSource*, AFramework::AInterruptSource*, AFramework::AInterruptSource*)
                0x9d010454                AFramework::AUARTDriver::AUARTDriver(AFramework::AUART_w volatile*, AFramework::AInterruptSource*, AFramework::AInterruptSource*, AFramework::AInterruptSource*)
                0x9d0104e4                AFramework::AUARTDriver::open(AFramework::AUARTDriver::Baud, AFramework::AUARTDriver::Data, AFramework::AUARTDriver::StopSelection, bool)
                0x9d010728                AFramework::AUARTDriver::isOpen() const
                0x9d010754                AFramework::AUARTDriver::close()
                0x9d010804                AFramework::AUARTDriver::getFaultEventController() volatile
                0x9d010830                AFramework::AUARTDriver::getReceiverEventController() volatile
                0x9d01085c                AFramework::AUARTDriver::getTransmitEventController() volatile
                0x9d010888                AFramework::AUARTDriver::write(char const*)
                0x9d010954                AFramework::AUARTDriver::writeln(char const*)
                0x9d0109c8                AFramework::AUARTDriver::write(unsigned int)
                0x9d010b3c                AFramework::AUARTDriver::read() const
                0x9d010b88                AFramework::AUARTDriver::bufferContains(AFramework::AString const&, bool const&)
                0x9d010bf0                AFramework::AUARTDriver::rxHandler()
                0x9d010cb0                AFramework::AUARTDriver::bytesAvailable() const
                0x9d010cf0                AFramework::AUARTDriver::bufferClear()
                0x9d010d40                AFramework::AUARTDriver::baud() const
 .text          0x9d010fb8      0xbcc build/default/production/_ext/1360937237/APorts.o
                0x9d010fb8                AFramework::AHardwarePort::AHardwarePort(AFramework::APORT_w volatile*)
                0x9d010fb8                AFramework::AHardwarePort::AHardwarePort(AFramework::APORT_w volatile*)
                0x9d0110a0                AFramework::AHardwarePort::adcStatus() const volatile
                0x9d0110e0                AFramework::AHardwarePort::isAnalog(unsigned int) const volatile
                0x9d011128                AFramework::AHardwarePort::setDigital(unsigned int) volatile
                0x9d011170                AFramework::AHardwarePort::setAnalog(unsigned int) volatile
                0x9d0111b8                AFramework::AHardwarePort::ioStatus() const volatile
                0x9d0111fc                AFramework::AHardwarePort::isInput(unsigned int) const volatile
                0x9d011248                AFramework::AHardwarePort::setInput(unsigned int) volatile
                0x9d011294                AFramework::AHardwarePort::setOutput(unsigned int) volatile
                0x9d0112e0                AFramework::AHardwarePort::read() const volatile
                0x9d011310                AFramework::AHardwarePort::read(unsigned int) const volatile
                0x9d011364                AFramework::AHardwarePort::portWrite(unsigned int) volatile
                0x9d0113c4                AFramework::AHardwarePort::portWrite(unsigned int, AFramework::LogicLevel) volatile
                0x9d01145c                AFramework::AHardwarePort::portInvert(unsigned int) volatile
                0x9d0114a8                AFramework::AHardwarePort::latchRead() const volatile
                0x9d0114d8                AFramework::AHardwarePort::latchRead(unsigned int) const volatile
                0x9d01152c                AFramework::AHardwarePort::write(unsigned int) volatile
                0x9d01158c                AFramework::AHardwarePort::write(unsigned int, AFramework::LogicLevel) volatile
                0x9d011624                AFramework::AHardwarePort::latchInvert(unsigned int) volatile
                0x9d011670                AFramework::AHardwarePort::openDrainStatus() const volatile
                0x9d0116a0                AFramework::AHardwarePort::isOpenDrain(unsigned int) const volatile
                0x9d0116ec                AFramework::AHardwarePort::setOpenDrain(unsigned int) volatile
                0x9d011738                AFramework::AHardwarePort::setStandard(unsigned int) volatile
                0x9d011784                AFramework::AHardwarePort::pullUpStatus() const volatile
                0x9d0117b4                AFramework::AHardwarePort::isPullUpEnabled(unsigned int) const volatile
                0x9d011800                AFramework::AHardwarePort::enablePullUp(unsigned int) volatile
                0x9d01185c                AFramework::AHardwarePort::disablePullUp(unsigned int) volatile
                0x9d0118a8                AFramework::AHardwarePort::pullDownStatus() const volatile
                0x9d0118d8                AFramework::AHardwarePort::isPullDownEnabled(unsigned int) const volatile
                0x9d011924                AFramework::AHardwarePort::enablePullDown(unsigned int) volatile
                0x9d011980                AFramework::AHardwarePort::disablePullDown(unsigned int) volatile
                0x9d0119cc                AFramework::AHardwarePort::isInterrutptEnabled() const volatile
                0x9d0119f0                AFramework::AHardwarePort::enableInterrupt(unsigned int, AFramework::Priority, AFramework::SubPriority, bool) volatile
                0x9d011a28                AFramework::AHardwarePort::disableInterrupt() volatile
                0x9d011a4c                AFramework::AHardwarePort::changeNoticeStatus() const volatile
                0x9d011a70                AFramework::AHardwarePort::hasInterruptOccurred(unsigned int) const volatile
                0x9d011a98                AFramework::AHardwarePort::resetInterruptFlag(unsigned int) volatile
 .text          0x9d011b84      0xbb8 build/default/production/_ext/1360937237/ADateTime.o
                0x9d011b84                AFramework::ADateTime::ADateTime()
                0x9d011b84                AFramework::ADateTime::ADateTime()
                0x9d011be0                AFramework::ADateTime::Weekday() const
                0x9d011c0c                AFramework::ADateTime::dayOfMonth() const
                0x9d011c38                AFramework::ADateTime::month() const
                0x9d011c64                AFramework::ADateTime::year() const
                0x9d011c90                AFramework::ADateTime::hours() const
                0x9d011cbc                AFramework::ADateTime::minutes() const
                0x9d011ce8                AFramework::ADateTime::seconds() const
                0x9d011d14                AFramework::ADateTime::setWeekday(AFramework::ADateTime::Weekdays)
                0x9d011d68                AFramework::ADateTime::setDayOfMonth(unsigned char)
                0x9d011fa0                AFramework::ADateTime::setMonth(AFramework::ADateTime::Months)
                0x9d011ff4                AFramework::ADateTime::setYear(unsigned char)
                0x9d01204c                AFramework::ADateTime::setHours(unsigned char)
                0x9d0120a4                AFramework::ADateTime::setMinutes(unsigned char)
                0x9d0120fc                AFramework::ADateTime::setSeconds(unsigned char)
                0x9d012154                AFramework::ADateTime::timeToString() const
                0x9d012438                AFramework::ADateTime::dateToString() const
 .text          0x9d01273c      0x86c build/default/production/_ext/1360937237/AI2CDriver.o
                0x9d01273c                AFramework::AI2CDriver::AI2CDriver(AFramework::AI2C_w volatile*, AFramework::AHardwarePort volatile*, unsigned int, AFramework::AHardwarePort volatile*, unsigned int)
                0x9d01273c                AFramework::AI2CDriver::AI2CDriver(AFramework::AI2C_w volatile*, AFramework::AHardwarePort volatile*, unsigned int, AFramework::AHardwarePort volatile*, unsigned int)
                0x9d0127c4                AFramework::AI2CDriver::open(AFramework::AI2CDriver::I2CFreq, bool) volatile
                0x9d0129d4                AFramework::AI2CDriver::isOpen() volatile
                0x9d012a04                AFramework::AI2CDriver::close() volatile
                0x9d012a8c                AFramework::AI2CDriver::start() volatile
                0x9d012b10                AFramework::AI2CDriver::stop() volatile
                0x9d012b94                AFramework::AI2CDriver::restart() volatile
                0x9d012c18                AFramework::AI2CDriver::write(unsigned char) volatile
                0x9d012cf8                AFramework::AI2CDriver::read() volatile
                0x9d012d90                AFramework::AI2CDriver::nack() volatile
                0x9d012e28                AFramework::AI2CDriver::ack() volatile
 .text          0x9d012fa8      0x7dc build/default/production/main.o
                0x9d012fa8                UART_HANDLER
                0x9d0130f8                main
 .text          0x9d013784      0x5f8 build/default/production/_ext/1360937237/A24LC512.o
                0x9d013784                AFramework::A24LC512::A24LC512(AFramework::AI2CDriver volatile*, unsigned char)
                0x9d013784                AFramework::A24LC512::A24LC512(AFramework::AI2CDriver volatile*, unsigned char)
                0x9d01384c                AFramework::A24LC512::read(unsigned short)
                0x9d01399c                AFramework::A24LC512::read(unsigned short, AFramework::AString&)
                0x9d013b50                AFramework::A24LC512::write(unsigned short, char)
                0x9d013c64                AFramework::A24LC512::write(unsigned short, AFramework::AString const&)
 .text          0x9d013d7c      0x598 /Applications/microchip/xc32/v1.40/bin/bin/../../lib/gcc/pic32mx/4.8.3/libgcc.a(unwind-sjlj.o)
                0x9d013d7c                _Unwind_SjLj_Register
                0x9d013d90                _Unwind_SjLj_Unregister
                0x9d013da0                _Unwind_GetGR
                0x9d013db8                _Unwind_GetCFA
                0x9d013dd4                _Unwind_SetGR
                0x9d013dec                _Unwind_GetIP
                0x9d013dfc                _Unwind_GetIPInfo
                0x9d013e1c                _Unwind_SetIP
                0x9d013e2c                _Unwind_GetLanguageSpecificData
                0x9d013e38                _Unwind_GetRegionStart
                0x9d013e40                _Unwind_FindEnclosingFunction
                0x9d013e48                _Unwind_GetDataRelBase
                0x9d013e50                _Unwind_GetTextRelBase
                0x9d013f58                _Unwind_SjLj_RaiseException
                0x9d014178                _Unwind_SjLj_ForcedUnwind
                0x9d0141b8                _Unwind_SjLj_Resume
                0x9d014200                _Unwind_SjLj_Resume_or_Rethrow
                0x9d014240                _Unwind_DeleteException
                0x9d01425c                _Unwind_Backtrace
 .text          0x9d014314      0x4b4 /Applications/microchip/xc32/v1.40/bin/bin/../../lib/gcc/pic32mx/4.8.3/libgcc.a(_divdi3.o)
                0x9d014314                __divdi3
 .text          0x9d0147c8      0x4a4 /Applications/microchip/xc32/v1.40/bin/bin/../../lib/gcc/pic32mx/4.8.3/libgcc.a(_moddi3.o)
                0x9d0147c8                __moddi3

.dinit          0x9d014c6c      0x490
 .dinit         0x9d014c6c      0x490 data_init

.text           0x9d0150fc      0x3b0
 .text          0x9d0150fc      0x3b0 build/default/production/_ext/1360937237/MTemp.o
                0x9d0150fc                AFramework::MTempMaster::MTempMaster(AFramework::AXbee*, AFramework::APCF8563*, AFramework::A24LC512*, AFramework::AESP8266*)
                0x9d0150fc                AFramework::MTempMaster::MTempMaster(AFramework::AXbee*, AFramework::APCF8563*, AFramework::A24LC512*, AFramework::AESP8266*)
                0x9d0151a0                AFramework::MTempMaster::prepareAp(AFramework::AString const&, AFramework::AString const&, unsigned short)
                0x9d0152e0                AFramework::MTempMaster::firstConfig()

.text.fpsubadd  0x9d0154ac      0x278
 .text.fpsubadd
                0x9d0154ac      0x278 /Applications/microchip/xc32/v1.40/bin/bin/../../lib/gcc/pic32mx/4.8.3/../../../../pic32mx/lib/libm.a(fp32subadd.o)
                0x9d0154ac                __subsf3
                0x9d0154ac                fpsub
                0x9d0154b4                fpadd
                0x9d0154b4                __addsf3

.text.__cxa_call_unexpected
                0x9d015724      0x240
 .text.__cxa_call_unexpected
                0x9d015724      0x240 /Applications/microchip/xc32/v1.40/bin/bin/../../lib/gcc/pic32mx/4.8.3/../../../../pic32mx/lib/libsupc++.a(eh_personality.o)
                0x9d015724                __cxa_call_unexpected

.text           0x9d015964      0x234
 .text          0x9d015964      0x234 build/default/production/_ext/1360937237/AInterruptSource.o
                0x9d015964                AFramework::AInterruptSource::AInterruptSource(unsigned char, unsigned char, unsigned char, unsigned int, unsigned int, unsigned int, unsigned int)
                0x9d015964                AFramework::AInterruptSource::AInterruptSource(unsigned char, unsigned char, unsigned char, unsigned int, unsigned int, unsigned int, unsigned int)
                0x9d0159f4                AFramework::AInterruptSource::enableInterrupt(AFramework::Priority, AFramework::SubPriority)
                0x9d015aa0                AFramework::AInterruptSource::disableInterrupt() volatile
                0x9d015aec                AFramework::AInterruptSource::hasInterruptOccurred() volatile
                0x9d015b4c                AFramework::AInterruptSource::clearFlag() volatile

.text.fp32div   0x9d015b98      0x230
 .text.fp32div  0x9d015b98      0x230 /Applications/microchip/xc32/v1.40/bin/bin/../../lib/gcc/pic32mx/4.8.3/../../../../pic32mx/lib/libm.a(fp32div.o)
                0x9d015b98                __divsf3
                0x9d015b98                fpdiv

.text           0x9d015dc8      0x228
 .text          0x9d015dc8      0x228 /Applications/microchip/xc32/v1.40/bin/bin/../../lib/gcc/pic32mx/4.8.3/crtbegin.o

.text.malloc    0x9d015ff0      0x224
 .text.malloc   0x9d015ff0      0x224 /Applications/microchip/xc32/v1.40/bin/bin/../../lib/gcc/pic32mx/4.8.3/../../../../pic32mx/lib/libxcpp.a(malloc.o)
                0x9d015ff0                malloc

.text.fp32mul   0x9d016214      0x1bc
 .text.fp32mul  0x9d016214      0x1bc /Applications/microchip/xc32/v1.40/bin/bin/../../lib/gcc/pic32mx/4.8.3/../../../../pic32mx/lib/libm.a(fp32mul.o)
                0x9d016214                __mulsf3
                0x9d016214                fpmul

.text._sbrk_init
                0x9d0163d0      0x194
 .text._sbrk_init
                0x9d0163d0      0x194 /Applications/microchip/xc32/v1.40/bin/bin/../../lib/gcc/pic32mx/4.8.3/../../../../pic32mx/lib/libpic32.a(sbrk.o)
                0x9d0163d0                _sbrk_init

.text._ZL28check_compact_exception_specPKSt9type_infoPvPKhij
                0x9d016564      0x190
 .text._ZL28check_compact_exception_specPKSt9type_infoPvPKhij
                0x9d016564      0x190 /Applications/microchip/xc32/v1.40/bin/bin/../../lib/gcc/pic32mx/4.8.3/../../../../pic32mx/lib/libsupc++.a(eh_personality.o)

.text._ZL28read_encoded_value_with_basehjPKhPj
                0x9d0166f4      0x180
 .text._ZL28read_encoded_value_with_basehjPKhPj
                0x9d0166f4      0x180 /Applications/microchip/xc32/v1.40/bin/bin/../../lib/gcc/pic32mx/4.8.3/../../../../pic32mx/lib/libsupc++.a(eh_personality.o)

.rodata         0x9d016874      0x168
 .rodata        0x9d016874      0x168 build/default/production/_ext/1360937237/AESP8266.o

.text._ZNK10__cxxabiv120__si_class_type_info12__do_dyncastElNS_17__class_type_info10__sub_kindEPKS1_PKvS4_S6_RNS1_16__dyncast_resultE
                0x9d0169dc      0x168
 .text._ZNK10__cxxabiv120__si_class_type_info12__do_dyncastElNS_17__class_type_info10__sub_kindEPKS1_PKvS4_S6_RNS1_16__dyncast_resultE
                0x9d0169dc      0x168 /Applications/microchip/xc32/v1.40/bin/bin/../../lib/gcc/pic32mx/4.8.3/../../../../pic32mx/lib/libsupc++.a(si_class_type_info.o)
                0x9d0169dc                __cxxabiv1::__si_class_type_info::__do_dyncast(long, __cxxabiv1::__class_type_info::__sub_kind, __cxxabiv1::__class_type_info const*, void const*, __cxxabiv1::__class_type_info const*, void const*, __cxxabiv1::__class_type_info::__dyncast_result&) const

.text._Dint     0x9d016b44      0x15c
 .text._Dint    0x9d016b44      0x15c /Applications/microchip/xc32/v1.40/bin/bin/../../lib/gcc/pic32mx/4.8.3/../../../../pic32mx/lib/libxcpp.a(xdint.o)
                0x9d016b44                _Dint

.text._ZL17parse_lsda_headerP15_Unwind_ContextPKhP16lsda_header_info
                0x9d016ca0      0x12c
 .text._ZL17parse_lsda_headerP15_Unwind_ContextPKhP16lsda_header_info
                0x9d016ca0      0x12c /Applications/microchip/xc32/v1.40/bin/bin/../../lib/gcc/pic32mx/4.8.3/../../../../pic32mx/lib/libsupc++.a(eh_personality.o)

.text._Atrealloc
                0x9d016dcc      0x108
 .text._Atrealloc
                0x9d016dcc      0x108 /Applications/microchip/xc32/v1.40/bin/bin/../../lib/gcc/pic32mx/4.8.3/../../../../pic32mx/lib/libxcpp.a(exit.o)
                0x9d016dcc                _Atrealloc

.rodata         0x9d016ed4       0xfc
 .rodata        0x9d016ed4       0xfc build/default/production/main.o

.text           0x9d016fd0      0x1d4
 .text          0x9d016fd0       0xec build/default/production/_ext/1360937237/AErrorNotifier.o
                0x9d016fd0                AFramework::AErrorNotifier::AErrorNotifier()
                0x9d016fd0                AFramework::AErrorNotifier::AErrorNotifier()
                0x9d017024                AFramework::AErrorNotifier::lastError() const volatile
                0x9d017050                AFramework::AErrorNotifier::good() const volatile
                0x9d017084                AFramework::AErrorNotifier::errset(AFramework::AAbstractErrorNotifier::AErrors const&) const volatile
 .text          0x9d0170bc       0xe8 build/default/production/_ext/1360937237/AXbee.o
                0x9d0170bc                AFramework::AXbee::AXbee(AFramework::AUARTDriver*, AFramework::AUARTDriver::Baud)
                0x9d0170bc                AFramework::AXbee::AXbee(AFramework::AUARTDriver*, AFramework::AUARTDriver::Baud)

.text.free      0x9d0171a4       0xe8
 .text.free     0x9d0171a4       0xe8 /Applications/microchip/xc32/v1.40/bin/bin/../../lib/gcc/pic32mx/4.8.3/../../../../pic32mx/lib/libxcpp.a(free.o)
                0x9d0171a4                free

.text.general_exception
                0x9d01728c       0xdc
 .text.general_exception
                0x9d01728c       0xdc /Applications/microchip/xc32/v1.40/bin/bin/../../lib/gcc/pic32mx/4.8.3/../../../../pic32mx/lib/libpic32.a(general-exception.o)
                0x9d01728c                _general_exception_context

.text._ZNK10__cxxabiv117__class_type_info12__do_dyncastElNS0_10__sub_kindEPKS0_PKvS3_S5_RNS0_16__dyncast_resultE
                0x9d017368       0xd4
 .text._ZNK10__cxxabiv117__class_type_info12__do_dyncastElNS0_10__sub_kindEPKS0_PKvS3_S5_RNS0_16__dyncast_resultE
                0x9d017368       0xd4 /Applications/microchip/xc32/v1.40/bin/bin/../../lib/gcc/pic32mx/4.8.3/../../../../pic32mx/lib/libsupc++.a(class_type_info.o)
                0x9d017368                __cxxabiv1::__class_type_info::__do_dyncast(long, __cxxabiv1::__class_type_info::__sub_kind, __cxxabiv1::__class_type_info const*, void const*, __cxxabiv1::__class_type_info const*, void const*, __cxxabiv1::__class_type_info::__dyncast_result&) const

.text._ZNK10__cxxabiv117__class_type_info10__do_catchEPKSt9type_infoPPvj
                0x9d01743c       0xcc
 .text._ZNK10__cxxabiv117__class_type_info10__do_catchEPKSt9type_infoPPvj
                0x9d01743c       0xcc /Applications/microchip/xc32/v1.40/bin/bin/../../lib/gcc/pic32mx/4.8.3/../../../../pic32mx/lib/libsupc++.a(class_type_info.o)
                0x9d01743c                __cxxabiv1::__class_type_info::__do_catch(std::type_info const*, void**, unsigned int) const

.text.__cxa_end_catch
                0x9d017508       0xcc
 .text.__cxa_end_catch
                0x9d017508       0xcc /Applications/microchip/xc32/v1.40/bin/bin/../../lib/gcc/pic32mx/4.8.3/../../../../pic32mx/lib/libsupc++.a(eh_catch.o)
                0x9d017508                __cxa_end_catch

.text.exit      0x9d0175d4       0xc8
 .text.exit     0x9d0175d4       0xc8 /Applications/microchip/xc32/v1.40/bin/bin/../../lib/gcc/pic32mx/4.8.3/../../../../pic32mx/lib/libxcpp.a(exit.o)
                0x9d0175d4                exit

.text._sbrk     0x9d01769c       0xc8
 .text._sbrk    0x9d01769c       0xc8 /Applications/microchip/xc32/v1.40/bin/bin/../../lib/gcc/pic32mx/4.8.3/../../../../pic32mx/lib/libpic32.a(sbrk.o)
                0x9d01769c                _sbrk

.text.__cxa_begin_catch
                0x9d017764       0xc4
 .text.__cxa_begin_catch
                0x9d017764       0xc4 /Applications/microchip/xc32/v1.40/bin/bin/../../lib/gcc/pic32mx/4.8.3/../../../../pic32mx/lib/libsupc++.a(eh_catch.o)
                0x9d017764                __cxa_begin_catch

.text._ZL20check_exception_specP16lsda_header_infoPKSt9type_infoPvl
                0x9d017828       0xac
 .text._ZL20check_exception_specP16lsda_header_infoPKSt9type_infoPvl
                0x9d017828       0xac /Applications/microchip/xc32/v1.40/bin/bin/../../lib/gcc/pic32mx/4.8.3/../../../../pic32mx/lib/libsupc++.a(eh_personality.o)

.text._ZL21size_of_encoded_valueh
                0x9d0178d4       0xa8
 .text._ZL21size_of_encoded_valueh
                0x9d0178d4       0xa8 /Applications/microchip/xc32/v1.40/bin/bin/../../lib/gcc/pic32mx/4.8.3/../../../../pic32mx/lib/libsupc++.a(eh_personality.o)

.text._ZNK10__cxxabiv120__si_class_type_info20__do_find_public_srcElPKvPKNS_17__class_type_infoES2_
                0x9d01797c       0xa0
 .text._ZNK10__cxxabiv120__si_class_type_info20__do_find_public_srcElPKvPKNS_17__class_type_infoES2_
                0x9d01797c       0xa0 /Applications/microchip/xc32/v1.40/bin/bin/../../lib/gcc/pic32mx/4.8.3/../../../../pic32mx/lib/libsupc++.a(si_class_type_info.o)
                0x9d01797c                __cxxabiv1::__si_class_type_info::__do_find_public_src(long, void const*, __cxxabiv1::__class_type_info const*, void const*) const

.text.__cxa_allocate_exception
                0x9d017a1c       0xa0
 .text.__cxa_allocate_exception
                0x9d017a1c       0xa0 /Applications/microchip/xc32/v1.40/bin/bin/../../lib/gcc/pic32mx/4.8.3/../../../../pic32mx/lib/libsupc++.a(eh_alloc.o)
                0x9d017a1c                __cxa_allocate_exception

.text.fpcmp     0x9d017abc       0x9c
 .text.fpcmp    0x9d017abc       0x9c /Applications/microchip/xc32/v1.40/bin/bin/../../lib/gcc/pic32mx/4.8.3/../../../../pic32mx/lib/libm.a(fpcmp.o)
                0x9d017abc                __eqsf2
                0x9d017abc                __nesf2
                0x9d017abc                __gtsf2
                0x9d017abc                __lesf2
                0x9d017abc                __ltsf2
                0x9d017abc                fpcmp
                0x9d017abc                __gesf2

.text._ZL21base_of_encoded_valuehP15_Unwind_Context
                0x9d017b58       0x94
 .text._ZL21base_of_encoded_valuehP15_Unwind_Context
                0x9d017b58       0x94 /Applications/microchip/xc32/v1.40/bin/bin/../../lib/gcc/pic32mx/4.8.3/../../../../pic32mx/lib/libsupc++.a(eh_personality.o)

.text.__cxa_throw
                0x9d017bec       0x94
 .text.__cxa_throw
                0x9d017bec       0x94 /Applications/microchip/xc32/v1.40/bin/bin/../../lib/gcc/pic32mx/4.8.3/../../../../pic32mx/lib/libsupc++.a(eh_throw.o)
                0x9d017bec                __cxa_throw

.text.__cxa_rethrow
                0x9d017c80       0x8c
 .text.__cxa_rethrow
                0x9d017c80       0x8c /Applications/microchip/xc32/v1.40/bin/bin/../../lib/gcc/pic32mx/4.8.3/../../../../pic32mx/lib/libsupc++.a(eh_throw.o)
                0x9d017c80                __cxa_rethrow

.text.__cxa_allocate_dependent_exception
                0x9d017d0c       0x8c
 .text.__cxa_allocate_dependent_exception
                0x9d017d0c       0x8c /Applications/microchip/xc32/v1.40/bin/bin/../../lib/gcc/pic32mx/4.8.3/../../../../pic32mx/lib/libsupc++.a(eh_alloc.o)
                0x9d017d0c                __cxa_allocate_dependent_exception

.text._ZNK10__cxxabiv117__class_type_info11__do_upcastEPKS0_PKvRNS0_15__upcast_resultE
                0x9d017d98       0x84
 .text._ZNK10__cxxabiv117__class_type_info11__do_upcastEPKS0_PKvRNS0_15__upcast_resultE
                0x9d017d98       0x84 /Applications/microchip/xc32/v1.40/bin/bin/../../lib/gcc/pic32mx/4.8.3/../../../../pic32mx/lib/libsupc++.a(class_type_info.o)
                0x9d017d98                __cxxabiv1::__class_type_info::__do_upcast(__cxxabiv1::__class_type_info const*, void const*, __cxxabiv1::__class_type_info::__upcast_result&) const

.text._ZL16get_adjusted_ptrPKSt9type_infoS1_PPv
                0x9d017e1c       0x80
 .text._ZL16get_adjusted_ptrPKSt9type_infoS1_PPv
                0x9d017e1c       0x80 /Applications/microchip/xc32/v1.40/bin/bin/../../lib/gcc/pic32mx/4.8.3/../../../../pic32mx/lib/libsupc++.a(eh_personality.o)

.text.round     0x9d017e9c       0x80
 .text.round    0x9d017e9c       0x80 /Applications/microchip/xc32/v1.40/bin/bin/../../lib/gcc/pic32mx/4.8.3/../../../../pic32mx/lib/libxcpp.a(round.o)
                0x9d017e9c                round

.text._ZNK10__cxxabiv120__si_class_type_info11__do_upcastEPKNS_17__class_type_infoEPKvRNS1_15__upcast_resultE
                0x9d017f1c       0x7c
 .text._ZNK10__cxxabiv120__si_class_type_info11__do_upcastEPKNS_17__class_type_infoEPKvRNS1_15__upcast_resultE
                0x9d017f1c       0x7c /Applications/microchip/xc32/v1.40/bin/bin/../../lib/gcc/pic32mx/4.8.3/../../../../pic32mx/lib/libsupc++.a(si_class_type_info.o)
                0x9d017f1c                __cxxabiv1::__si_class_type_info::__do_upcast(__cxxabiv1::__class_type_info const*, void const*, __cxxabiv1::__class_type_info::__upcast_result&) const

.text.atexit    0x9d017f98       0x7c
 .text.atexit   0x9d017f98       0x7c /Applications/microchip/xc32/v1.40/bin/bin/../../lib/gcc/pic32mx/4.8.3/../../../../pic32mx/lib/libxcpp.a(exit.o)
                0x9d017f98                atexit

.text.fptoul    0x9d018014       0x7c
 .text.fptoul   0x9d018014       0x7c /Applications/microchip/xc32/v1.40/bin/bin/../../lib/gcc/pic32mx/4.8.3/../../../../pic32mx/lib/libm.a(fptoul.o)
                0x9d018014                fptoui
                0x9d018014                __fixunssfsi
                0x9d018014                fptoul

.text._ZL23__gxx_exception_cleanup19_Unwind_Reason_CodeP17_Unwind_Exception
                0x9d018090       0x78
 .text._ZL23__gxx_exception_cleanup19_Unwind_Reason_CodeP17_Unwind_Exception
                0x9d018090       0x78 /Applications/microchip/xc32/v1.40/bin/bin/../../lib/gcc/pic32mx/4.8.3/../../../../pic32mx/lib/libsupc++.a(eh_throw.o)

.text._ZN10__cxxabiv111__terminateEPFvvE
                0x9d018108       0x74
 .text._ZN10__cxxabiv111__terminateEPFvvE
                0x9d018108       0x74 /Applications/microchip/xc32/v1.40/bin/bin/../../lib/gcc/pic32mx/4.8.3/../../../../pic32mx/lib/libsupc++.a(eh_terminate.o)
                0x9d018108                __cxxabiv1::__terminate(void (*)())

.text.strstr    0x9d01817c       0x6c
 .text.strstr   0x9d01817c       0x6c /Applications/microchip/xc32/v1.40/bin/bin/../../lib/gcc/pic32mx/4.8.3/../../../../pic32mx/lib/libxcpp.a(strstr.o)
                0x9d01817c                strstr

.text._ZNK10__cxxabiv117__class_type_info11__do_upcastEPKS0_PPv
                0x9d0181e8       0x68
 .text._ZNK10__cxxabiv117__class_type_info11__do_upcastEPKS0_PPv
                0x9d0181e8       0x68 /Applications/microchip/xc32/v1.40/bin/bin/../../lib/gcc/pic32mx/4.8.3/../../../../pic32mx/lib/libsupc++.a(class_type_info.o)
                0x9d0181e8                __cxxabiv1::__class_type_info::__do_upcast(__cxxabiv1::__class_type_info const*, void**) const

.text.__cxa_call_terminate
                0x9d018250       0x64
 .text.__cxa_call_terminate
                0x9d018250       0x64 /Applications/microchip/xc32/v1.40/bin/bin/../../lib/gcc/pic32mx/4.8.3/../../../../pic32mx/lib/libsupc++.a(eh_call.o)
                0x9d018250                __cxa_call_terminate

.rodata         0x9d0182b4       0x60
 .rodata        0x9d0182b4       0x60 build/default/production/_ext/1360937237/ATimers.o

.text._ZL15get_ttype_entryP16lsda_header_infom
                0x9d018314       0x60
 .text._ZL15get_ttype_entryP16lsda_header_infom
                0x9d018314       0x60 /Applications/microchip/xc32/v1.40/bin/bin/../../lib/gcc/pic32mx/4.8.3/../../../../pic32mx/lib/libsupc++.a(eh_personality.o)

.text.sitofp    0x9d018374       0x60
 .text.sitofp   0x9d018374       0x60 /Applications/microchip/xc32/v1.40/bin/bin/../../lib/gcc/pic32mx/4.8.3/../../../../pic32mx/lib/libm.a(sitofp.o)
                0x9d018374                sitofp
                0x9d018374                __floatsisf
                0x9d018374                litofp

.text           0x9d0183d4       0x58
 .text          0x9d0183d4       0x58 /Applications/microchip/xc32/v1.40/bin/bin/../../lib/gcc/pic32mx/4.8.3/crtend.o

.text.main_entry
                0x9d01842c       0x54
 .text.main_entry
                0x9d01842c       0x54 /Applications/microchip/xc32/v1.40/bin/bin/../../lib/gcc/pic32mx/4.8.3/../../../../pic32mx/lib/./proc/32MX270F256D/cpprt0_mips32r2.o
                0x9d018460                __crt0_exit

.rodata         0x9d018480       0x54
 .rodata        0x9d018480       0x54 build/default/production/_ext/1360937237/MTemp.o

.text._ZL12read_sleb128PKhPl
                0x9d0184d4       0x50
 .text._ZL12read_sleb128PKhPl
                0x9d0184d4       0x50 /Applications/microchip/xc32/v1.40/bin/bin/../../lib/gcc/pic32mx/4.8.3/../../../../pic32mx/lib/libsupc++.a(eh_personality.o)

.text._ZNKSt9type_info10__do_catchEPKS_PPvj
                0x9d018524       0x50
 .text._ZNKSt9type_info10__do_catchEPKS_PPvj
                0x9d018524       0x50 /Applications/microchip/xc32/v1.40/bin/bin/../../lib/gcc/pic32mx/4.8.3/../../../../pic32mx/lib/libsupc++.a(tinfo.o)
                0x9d018524                std::type_info::__do_catch(std::type_info const*, void**, unsigned int) const

.text.sbrk      0x9d018574       0x50
 .text.sbrk     0x9d018574       0x50 /Applications/microchip/xc32/v1.40/bin/bin/../../lib/gcc/pic32mx/4.8.3/../../../../pic32mx/lib/libpic32.a(sbrk.o)
                0x9d018574                sbrk

.rodata         0x9d0185c4       0x98
 .rodata        0x9d0185c4       0x4c build/default/production/_ext/1360937237/ACore.o
                0x9d0185c4                AFramework::System::Freq40MHz
                0x9d0185c8                AFramework::System::Freq32KHz
 .rodata        0x9d018610       0x4c build/default/production/_ext/1360937237/AI2CDriver.o

.text.__cxa_free_exception
                0x9d01865c       0x4c
 .text.__cxa_free_exception
                0x9d01865c       0x4c /Applications/microchip/xc32/v1.40/bin/bin/../../lib/gcc/pic32mx/4.8.3/../../../../pic32mx/lib/libsupc++.a(eh_alloc.o)
                0x9d01865c                __cxa_free_exception

.text.__cxa_free_dependent_exception
                0x9d0186a8       0x4c
 .text.__cxa_free_dependent_exception
                0x9d0186a8       0x4c /Applications/microchip/xc32/v1.40/bin/bin/../../lib/gcc/pic32mx/4.8.3/../../../../pic32mx/lib/libsupc++.a(eh_alloc.o)
                0x9d0186a8                __cxa_free_dependent_exception

.text           0x9d0186f4       0x4c
 .text          0x9d0186f4       0x4c /Applications/microchip/xc32/v1.40/bin/bin/../../lib/gcc/pic32mx/4.8.3/libgcc.a(floatunsisf.o)
                0x9d0186f4                __floatunsisf

.rodata         0x9d018740       0x90
 .rodata        0x9d018740       0x48 build/default/production/_ext/1360937237/AString.o
 .rodata        0x9d018788       0x48 build/default/production/_ext/1360937237/AUARTDriver.o

.text._bootstrap_exception_handler
                0x9d0187d0       0x48
 .text._bootstrap_exception_handler
                0x9d0187d0       0x48 /Applications/microchip/xc32/v1.40/bin/bin/../../lib/gcc/pic32mx/4.8.3/../../../../pic32mx/lib/libpic32.a(default-bootstrap-exception-handler.o)
                0x9d0187d0                _bootstrap_exception_handler

.text._general_exception_handler
                0x9d018818       0x48
 .text._general_exception_handler
                0x9d018818       0x48 /Applications/microchip/xc32/v1.40/bin/bin/../../lib/gcc/pic32mx/4.8.3/../../../../pic32mx/lib/libpic32.a(default-general-exception-handler.o)
                0x9d018818                _general_exception_handler

.vector_default
                0x9d018860       0x48
 .vector_default
                0x9d018860       0x48 /Applications/microchip/xc32/v1.40/bin/bin/../../lib/gcc/pic32mx/4.8.3/../../../../pic32mx/lib/libpic32.a(defaultinterrupt.o)
                0x9d018860                _DefaultInterrupt

.text.strcmp    0x9d0188a8       0x44
 .text.strcmp   0x9d0188a8       0x44 /Applications/microchip/xc32/v1.40/bin/bin/../../lib/gcc/pic32mx/4.8.3/../../../../pic32mx/lib/libxcpp.a(strcmp.o)
                0x9d0188a8                strcmp

.text           0x9d0188ec       0x44
 .text          0x9d0188ec       0x44 /Applications/microchip/xc32/v1.40/bin/bin/../../lib/gcc/pic32mx/4.8.3/../../../../pic32mx/lib/pic32_software_reset.o
                0x9d0188ec                __pic32_software_reset

.rodata         0x9d018930      0x200
 .rodata        0x9d018930       0x40 build/default/production/_ext/1360937237/A24LC512.o
 .rodata        0x9d018970       0x40 build/default/production/_ext/1360937237/ADateTime.o
 .rodata        0x9d0189b0       0x40 build/default/production/_ext/1360937237/AInterruptSource.o
 .rodata        0x9d0189f0       0x40 build/default/production/_ext/1360937237/ALcd.o
 .rodata        0x9d018a30       0x40 build/default/production/_ext/1360937237/APCF8563.o
 .rodata        0x9d018a70       0x40 build/default/production/_ext/1360937237/APorts.o
 .rodata        0x9d018ab0       0x40 build/default/production/_ext/1360937237/ATime.o
 .rodata        0x9d018af0       0x40 build/default/production/_ext/1360937237/AXbee.o

.text._ZN10__cxxabiv117__class_type_infoD0Ev
                0x9d018b30       0x34
 .text._ZN10__cxxabiv117__class_type_infoD0Ev
                0x9d018b30       0x34 /Applications/microchip/xc32/v1.40/bin/bin/../../lib/gcc/pic32mx/4.8.3/../../../../pic32mx/lib/libsupc++.a(class_type_info.o)
                0x9d018b30                __cxxabiv1::__class_type_info::~__class_type_info()

.text._ZN10__cxxabiv120__si_class_type_infoD0Ev
                0x9d018b64       0x34
 .text._ZN10__cxxabiv120__si_class_type_infoD0Ev
                0x9d018b64       0x34 /Applications/microchip/xc32/v1.40/bin/bin/../../lib/gcc/pic32mx/4.8.3/../../../../pic32mx/lib/libsupc++.a(si_class_type_info.o)
                0x9d018b64                __cxxabiv1::__si_class_type_info::~__si_class_type_info()

.text._Getmem   0x9d018b98       0x34
 .text._Getmem  0x9d018b98       0x34 /Applications/microchip/xc32/v1.40/bin/bin/../../lib/gcc/pic32mx/4.8.3/../../../../pic32mx/lib/libxcpp.a(xgetmem.o)
                0x9d018b98                _Getmem

.text.strchr    0x9d018bcc       0x34
 .text.strchr   0x9d018bcc       0x34 /Applications/microchip/xc32/v1.40/bin/bin/../../lib/gcc/pic32mx/4.8.3/../../../../pic32mx/lib/libxcpp.a(strchr.o)
                0x9d018bcc                strchr

.text.raise     0x9d018c00       0x30
 .text.raise    0x9d018c00       0x30 /Applications/microchip/xc32/v1.40/bin/bin/../../lib/gcc/pic32mx/4.8.3/../../../../pic32mx/lib/libxcpp.a(raise.o)
                0x9d018c00                raise

.text.strlen    0x9d018c30       0x30
 .text.strlen   0x9d018c30       0x30 /Applications/microchip/xc32/v1.40/bin/bin/../../lib/gcc/pic32mx/4.8.3/../../../../pic32mx/lib/libxcpp.a(strlen.o)
                0x9d018c30                strlen

.rodata         0x9d018c60       0x30
 .rodata        0x9d018c60       0x30 /Applications/microchip/xc32/v1.40/bin/bin/../../lib/gcc/pic32mx/4.8.3/../../../../pic32mx/lib/libxcpp.a(xdint.o)

.text.memcpy    0x9d018c90       0x2c
 .text.memcpy   0x9d018c90       0x2c /Applications/microchip/xc32/v1.40/bin/bin/../../lib/gcc/pic32mx/4.8.3/../../../../pic32mx/lib/libxcpp.a(memcpy.o)
                0x9d018c90                memcpy

.text.memset    0x9d018cbc       0x2c
 .text.memset   0x9d018cbc       0x2c /Applications/microchip/xc32/v1.40/bin/bin/../../lib/gcc/pic32mx/4.8.3/../../../../pic32mx/lib/libxcpp.a(memset.o)
                0x9d018cbc                memset

.text._stub_sbd_memlayout
                0x9d018ce8       0x2c
 .text._stub_sbd_memlayout
                0x9d018ce8       0x2c /Applications/microchip/xc32/v1.40/bin/bin/../../lib/gcc/pic32mx/4.8.3/../../../../pic32mx/lib/libpic32.a(sbrk.o)
                0x9d018ce8                _stub_sbd_memlayout
                0x9d018ce8                _sbd_memlayout

.text._ZSt18uncaught_exceptionv
                0x9d018d14       0x24
 .text._ZSt18uncaught_exceptionv
                0x9d018d14       0x24 /Applications/microchip/xc32/v1.40/bin/bin/../../lib/gcc/pic32mx/4.8.3/../../../../pic32mx/lib/libsupc++.a(eh_catch.o)
                0x9d018d14                std::uncaught_exception()

.rodata         0x9d018d38       0x24
 .rodata        0x9d018d38       0x24 /Applications/microchip/xc32/v1.40/bin/bin/../../lib/gcc/pic32mx/4.8.3/../../../../pic32mx/lib/libsupc++.a(eh_exception.o)

.text._ZNK10__cxxabiv117__class_type_info20__do_find_public_srcElPKvPKS0_S2_
                0x9d018d5c       0x1c
 .text._ZNK10__cxxabiv117__class_type_info20__do_find_public_srcElPKvPKS0_S2_
                0x9d018d5c       0x1c /Applications/microchip/xc32/v1.40/bin/bin/../../lib/gcc/pic32mx/4.8.3/../../../../pic32mx/lib/libsupc++.a(class_type_info.o)
                0x9d018d5c                __cxxabiv1::__class_type_info::__do_find_public_src(long, void const*, __cxxabiv1::__class_type_info const*, void const*) const

.text._ZN10__cxxabiv112__unexpectedEPFvvE
                0x9d018d78       0x18
 .text._ZN10__cxxabiv112__unexpectedEPFvvE
                0x9d018d78       0x18 /Applications/microchip/xc32/v1.40/bin/bin/../../lib/gcc/pic32mx/4.8.3/../../../../pic32mx/lib/libsupc++.a(eh_terminate.o)
                0x9d018d78                __cxxabiv1::__unexpected(void (*)())

.text.abort     0x9d018d90       0x18
 .text.abort    0x9d018d90       0x18 /Applications/microchip/xc32/v1.40/bin/bin/../../lib/gcc/pic32mx/4.8.3/../../../../pic32mx/lib/libxcpp.a(abort.o)
                0x9d018d90                abort

.text           0x9d018da8       0x18
 .text          0x9d018da8       0x18 /Applications/microchip/xc32/v1.40/bin/bin/../../lib/gcc/pic32mx/4.8.3/../../../../pic32mx/lib/libpic32.a(default-nmi-handler.o)
                0x9d018da8                _nmi_handler

.text._ZN10__cxxabiv117__class_type_infoD2Ev
                0x9d018dc0       0x10
 .text._ZN10__cxxabiv117__class_type_infoD2Ev
                0x9d018dc0       0x10 /Applications/microchip/xc32/v1.40/bin/bin/../../lib/gcc/pic32mx/4.8.3/../../../../pic32mx/lib/libsupc++.a(class_type_info.o)
                0x9d018dc0                __cxxabiv1::__class_type_info::~__class_type_info()
                0x9d018dc0                __cxxabiv1::__class_type_info::~__class_type_info()

.text._ZSt9terminatev
                0x9d018dd0       0x10
 .text._ZSt9terminatev
                0x9d018dd0       0x10 /Applications/microchip/xc32/v1.40/bin/bin/../../lib/gcc/pic32mx/4.8.3/../../../../pic32mx/lib/libsupc++.a(eh_terminate.o)
                0x9d018dd0                std::terminate()

.text._ZSt10unexpectedv
                0x9d018de0       0x10
 .text._ZSt10unexpectedv
                0x9d018de0       0x10 /Applications/microchip/xc32/v1.40/bin/bin/../../lib/gcc/pic32mx/4.8.3/../../../../pic32mx/lib/libsupc++.a(eh_terminate.o)
                0x9d018de0                std::unexpected()

.text._ZN10__cxxabiv120__si_class_type_infoD2Ev
                0x9d018df0       0x10
 .text._ZN10__cxxabiv120__si_class_type_infoD2Ev
                0x9d018df0       0x10 /Applications/microchip/xc32/v1.40/bin/bin/../../lib/gcc/pic32mx/4.8.3/../../../../pic32mx/lib/libsupc++.a(si_class_type_info.o)
                0x9d018df0                __cxxabiv1::__si_class_type_info::~__si_class_type_info()
                0x9d018df0                __cxxabiv1::__si_class_type_info::~__si_class_type_info()

.text._ZNSt9type_infoD2Ev
                0x9d018e00       0x10
 .text._ZNSt9type_infoD2Ev
                0x9d018e00       0x10 /Applications/microchip/xc32/v1.40/bin/bin/../../lib/gcc/pic32mx/4.8.3/../../../../pic32mx/lib/libsupc++.a(tinfo.o)
                0x9d018e00                std::type_info::~type_info()
                0x9d018e00                std::type_info::~type_info()

.text._ZNSt9type_infoD0Ev
                0x9d018e10       0x10
 .text._ZNSt9type_infoD0Ev
                0x9d018e10       0x10 /Applications/microchip/xc32/v1.40/bin/bin/../../lib/gcc/pic32mx/4.8.3/../../../../pic32mx/lib/libsupc++.a(tinfo.o)
                0x9d018e10                std::type_info::~type_info()

.text.__cxa_pure_virtual
                0x9d018e20       0x10
 .text.__cxa_pure_virtual
                0x9d018e20       0x10 /Applications/microchip/xc32/v1.40/bin/bin/../../lib/gcc/pic32mx/4.8.3/../../../../pic32mx/lib/libsupc++.a(pure.o)
                0x9d018e20                __cxa_pure_virtual

.text.__cxa_deleted_virtual
                0x9d018e30       0x10
 .text.__cxa_deleted_virtual
                0x9d018e30       0x10 /Applications/microchip/xc32/v1.40/bin/bin/../../lib/gcc/pic32mx/4.8.3/../../../../pic32mx/lib/libsupc++.a(pure.o)
                0x9d018e30                __cxa_deleted_virtual

.text._ZNSt9exceptionD2Ev
                0x9d018e40       0x10
 .text._ZNSt9exceptionD2Ev
                0x9d018e40       0x10 /Applications/microchip/xc32/v1.40/bin/bin/../../lib/gcc/pic32mx/4.8.3/../../../../pic32mx/lib/libsupc++.a(eh_exception.o)
                0x9d018e40                std::exception::~exception()
                0x9d018e40                std::exception::~exception()

.text._ZNSt9exceptionD0Ev
                0x9d018e50       0x10
 .text._ZNSt9exceptionD0Ev
                0x9d018e50       0x10 /Applications/microchip/xc32/v1.40/bin/bin/../../lib/gcc/pic32mx/4.8.3/../../../../pic32mx/lib/libsupc++.a(eh_exception.o)
                0x9d018e50                std::exception::~exception()

.text._ZNSt13bad_exceptionD2Ev
                0x9d018e60       0x10
 .text._ZNSt13bad_exceptionD2Ev
                0x9d018e60       0x10 /Applications/microchip/xc32/v1.40/bin/bin/../../lib/gcc/pic32mx/4.8.3/../../../../pic32mx/lib/libsupc++.a(eh_exception.o)
                0x9d018e60                std::bad_exception::~bad_exception()
                0x9d018e60                std::bad_exception::~bad_exception()

.text._ZNSt13bad_exceptionD0Ev
                0x9d018e70       0x10
 .text._ZNSt13bad_exceptionD0Ev
                0x9d018e70       0x10 /Applications/microchip/xc32/v1.40/bin/bin/../../lib/gcc/pic32mx/4.8.3/../../../../pic32mx/lib/libsupc++.a(eh_exception.o)
                0x9d018e70                std::bad_exception::~bad_exception()

.text._ZN10__cxxabiv115__forced_unwindD2Ev
                0x9d018e80       0x10
 .text._ZN10__cxxabiv115__forced_unwindD2Ev
                0x9d018e80       0x10 /Applications/microchip/xc32/v1.40/bin/bin/../../lib/gcc/pic32mx/4.8.3/../../../../pic32mx/lib/libsupc++.a(eh_exception.o)
                0x9d018e80                __cxxabiv1::__forced_unwind::~__forced_unwind()
                0x9d018e80                __cxxabiv1::__forced_unwind::~__forced_unwind()

.text._ZN10__cxxabiv115__forced_unwindD0Ev
                0x9d018e90       0x10
 .text._ZN10__cxxabiv115__forced_unwindD0Ev
                0x9d018e90       0x10 /Applications/microchip/xc32/v1.40/bin/bin/../../lib/gcc/pic32mx/4.8.3/../../../../pic32mx/lib/libsupc++.a(eh_exception.o)
                0x9d018e90                __cxxabiv1::__forced_unwind::~__forced_unwind()

.text._ZN10__cxxabiv119__foreign_exceptionD2Ev
                0x9d018ea0       0x10
 .text._ZN10__cxxabiv119__foreign_exceptionD2Ev
                0x9d018ea0       0x10 /Applications/microchip/xc32/v1.40/bin/bin/../../lib/gcc/pic32mx/4.8.3/../../../../pic32mx/lib/libsupc++.a(eh_exception.o)
                0x9d018ea0                __cxxabiv1::__foreign_exception::~__foreign_exception()
                0x9d018ea0                __cxxabiv1::__foreign_exception::~__foreign_exception()

.text._ZN10__cxxabiv119__foreign_exceptionD0Ev
                0x9d018eb0       0x10
 .text._ZN10__cxxabiv119__foreign_exceptionD0Ev
                0x9d018eb0       0x10 /Applications/microchip/xc32/v1.40/bin/bin/../../lib/gcc/pic32mx/4.8.3/../../../../pic32mx/lib/libsupc++.a(eh_exception.o)
                0x9d018eb0                __cxxabiv1::__foreign_exception::~__foreign_exception()

.text.abs       0x9d018ec0       0x10
 .text.abs      0x9d018ec0       0x10 /Applications/microchip/xc32/v1.40/bin/bin/../../lib/gcc/pic32mx/4.8.3/../../../../pic32mx/lib/libxcpp.a(abs.o)
                0x9d018ec0                abs

.text._Exit     0x9d018ed0       0x10
 .text._Exit    0x9d018ed0       0x10 /Applications/microchip/xc32/v1.40/bin/bin/../../lib/gcc/pic32mx/4.8.3/../../../../pic32mx/lib/libxcpp.a(xexit.o)
                0x9d018ed0                _Exit

.text._ZSt13set_terminatePFvvE
                0x9d018ee0        0xc
 .text._ZSt13set_terminatePFvvE
                0x9d018ee0        0xc /Applications/microchip/xc32/v1.40/bin/bin/../../lib/gcc/pic32mx/4.8.3/../../../../pic32mx/lib/libsupc++.a(eh_terminate.o)
                0x9d018ee0                std::set_terminate(void (*)())

.text._ZSt14set_unexpectedPFvvE
                0x9d018eec        0xc
 .text._ZSt14set_unexpectedPFvvE
                0x9d018eec        0xc /Applications/microchip/xc32/v1.40/bin/bin/../../lib/gcc/pic32mx/4.8.3/../../../../pic32mx/lib/libsupc++.a(eh_terminate.o)
                0x9d018eec                std::set_unexpected(void (*)())

.text._ZNKSt9exception4whatEv
                0x9d018ef8        0xc
 .text._ZNKSt9exception4whatEv
                0x9d018ef8        0xc /Applications/microchip/xc32/v1.40/bin/bin/../../lib/gcc/pic32mx/4.8.3/../../../../pic32mx/lib/libsupc++.a(eh_exception.o)
                0x9d018ef8                std::exception::what() const

.text._ZNKSt13bad_exception4whatEv
                0x9d018f04        0xc
 .text._ZNKSt13bad_exception4whatEv
                0x9d018f04        0xc /Applications/microchip/xc32/v1.40/bin/bin/../../lib/gcc/pic32mx/4.8.3/../../../../pic32mx/lib/libsupc++.a(eh_exception.o)
                0x9d018f04                std::bad_exception::what() const

.rodata._ZN10__cxxabiv1L29__gxx_primary_exception_classE.__gxx_primary_exception_class
                0x9d018f10        0x8
 .rodata._ZN10__cxxabiv1L29__gxx_primary_exception_classE.__gxx_primary_exception_class
                0x9d018f10        0x8 /Applications/microchip/xc32/v1.40/bin/bin/../../lib/gcc/pic32mx/4.8.3/../../../../pic32mx/lib/libsupc++.a(eh_personality.o)

.rodata._ZN10__cxxabiv1L31__gxx_dependent_exception_classE.__gxx_dependent_exception_class
                0x9d018f18        0x8
 .rodata._ZN10__cxxabiv1L31__gxx_dependent_exception_classE.__gxx_dependent_exception_class
                0x9d018f18        0x8 /Applications/microchip/xc32/v1.40/bin/bin/../../lib/gcc/pic32mx/4.8.3/../../../../pic32mx/lib/libsupc++.a(eh_personality.o)

.rodata._ZN10__cxxabiv1L29__gxx_primary_exception_classE.__gxx_primary_exception_class
                0x9d018f20        0x8
 .rodata._ZN10__cxxabiv1L29__gxx_primary_exception_classE.__gxx_primary_exception_class
                0x9d018f20        0x8 /Applications/microchip/xc32/v1.40/bin/bin/../../lib/gcc/pic32mx/4.8.3/../../../../pic32mx/lib/libsupc++.a(eh_terminate.o)

.rodata._ZN10__cxxabiv1L31__gxx_dependent_exception_classE.__gxx_dependent_exception_class
                0x9d018f28        0x8
 .rodata._ZN10__cxxabiv1L31__gxx_dependent_exception_classE.__gxx_dependent_exception_class
                0x9d018f28        0x8 /Applications/microchip/xc32/v1.40/bin/bin/../../lib/gcc/pic32mx/4.8.3/../../../../pic32mx/lib/libsupc++.a(eh_terminate.o)

.rodata._ZN10__cxxabiv1L29__gxx_primary_exception_classE.__gxx_primary_exception_class
                0x9d018f30        0x8
 .rodata._ZN10__cxxabiv1L29__gxx_primary_exception_classE.__gxx_primary_exception_class
                0x9d018f30        0x8 /Applications/microchip/xc32/v1.40/bin/bin/../../lib/gcc/pic32mx/4.8.3/../../../../pic32mx/lib/libsupc++.a(eh_throw.o)

.rodata._ZN10__cxxabiv1L31__gxx_dependent_exception_classE.__gxx_dependent_exception_class
                0x9d018f38        0x8
 .rodata._ZN10__cxxabiv1L31__gxx_dependent_exception_classE.__gxx_dependent_exception_class
                0x9d018f38        0x8 /Applications/microchip/xc32/v1.40/bin/bin/../../lib/gcc/pic32mx/4.8.3/../../../../pic32mx/lib/libsupc++.a(eh_throw.o)

.rodata._ZN10__cxxabiv1L29__gxx_primary_exception_classE.__gxx_primary_exception_class
                0x9d018f40        0x8
 .rodata._ZN10__cxxabiv1L29__gxx_primary_exception_classE.__gxx_primary_exception_class
                0x9d018f40        0x8 /Applications/microchip/xc32/v1.40/bin/bin/../../lib/gcc/pic32mx/4.8.3/../../../../pic32mx/lib/libsupc++.a(eh_unex_handler.o)

.rodata._ZN10__cxxabiv1L31__gxx_dependent_exception_classE.__gxx_dependent_exception_class
                0x9d018f48        0x8
 .rodata._ZN10__cxxabiv1L31__gxx_dependent_exception_classE.__gxx_dependent_exception_class
                0x9d018f48        0x8 /Applications/microchip/xc32/v1.40/bin/bin/../../lib/gcc/pic32mx/4.8.3/../../../../pic32mx/lib/libsupc++.a(eh_unex_handler.o)

.text._ZNKSt9type_info14__is_pointer_pEv
                0x9d018f50        0x8
 .text._ZNKSt9type_info14__is_pointer_pEv
                0x9d018f50        0x8 /Applications/microchip/xc32/v1.40/bin/bin/../../lib/gcc/pic32mx/4.8.3/../../../../pic32mx/lib/libsupc++.a(tinfo.o)
                0x9d018f50                std::type_info::__is_pointer_p() const

.text._ZNKSt9type_info15__is_function_pEv
                0x9d018f58        0x8
 .text._ZNKSt9type_info15__is_function_pEv
                0x9d018f58        0x8 /Applications/microchip/xc32/v1.40/bin/bin/../../lib/gcc/pic32mx/4.8.3/../../../../pic32mx/lib/libsupc++.a(tinfo.o)
                0x9d018f58                std::type_info::__is_function_p() const

.text._ZNKSt9type_info11__do_upcastEPKN10__cxxabiv117__class_type_infoEPPv
                0x9d018f60        0x8
 .text._ZNKSt9type_info11__do_upcastEPKN10__cxxabiv117__class_type_infoEPPv
                0x9d018f60        0x8 /Applications/microchip/xc32/v1.40/bin/bin/../../lib/gcc/pic32mx/4.8.3/../../../../pic32mx/lib/libsupc++.a(tinfo.o)
                0x9d018f60                std::type_info::__do_upcast(__cxxabiv1::__class_type_info const*, void**) const

.rodata._ZN10__cxxabiv1L29__gxx_primary_exception_classE.__gxx_primary_exception_class
                0x9d018f68        0x8
 .rodata._ZN10__cxxabiv1L29__gxx_primary_exception_classE.__gxx_primary_exception_class
                0x9d018f68        0x8 /Applications/microchip/xc32/v1.40/bin/bin/../../lib/gcc/pic32mx/4.8.3/../../../../pic32mx/lib/libsupc++.a(pure.o)

.rodata._ZN10__cxxabiv1L31__gxx_dependent_exception_classE.__gxx_dependent_exception_class
                0x9d018f70        0x8
 .rodata._ZN10__cxxabiv1L31__gxx_dependent_exception_classE.__gxx_dependent_exception_class
                0x9d018f70        0x8 /Applications/microchip/xc32/v1.40/bin/bin/../../lib/gcc/pic32mx/4.8.3/../../../../pic32mx/lib/libsupc++.a(pure.o)

.rodata._ZN10__cxxabiv1L29__gxx_primary_exception_classE.__gxx_primary_exception_class
                0x9d018f78        0x8
 .rodata._ZN10__cxxabiv1L29__gxx_primary_exception_classE.__gxx_primary_exception_class
                0x9d018f78        0x8 /Applications/microchip/xc32/v1.40/bin/bin/../../lib/gcc/pic32mx/4.8.3/../../../../pic32mx/lib/libsupc++.a(eh_alloc.o)

.rodata._ZN10__cxxabiv1L31__gxx_dependent_exception_classE.__gxx_dependent_exception_class
                0x9d018f80        0x8
 .rodata._ZN10__cxxabiv1L31__gxx_dependent_exception_classE.__gxx_dependent_exception_class
                0x9d018f80        0x8 /Applications/microchip/xc32/v1.40/bin/bin/../../lib/gcc/pic32mx/4.8.3/../../../../pic32mx/lib/libsupc++.a(eh_alloc.o)

.rodata._ZN10__cxxabiv1L29__gxx_primary_exception_classE.__gxx_primary_exception_class
                0x9d018f88        0x8
 .rodata._ZN10__cxxabiv1L29__gxx_primary_exception_classE.__gxx_primary_exception_class
                0x9d018f88        0x8 /Applications/microchip/xc32/v1.40/bin/bin/../../lib/gcc/pic32mx/4.8.3/../../../../pic32mx/lib/libsupc++.a(eh_call.o)

.rodata._ZN10__cxxabiv1L31__gxx_dependent_exception_classE.__gxx_dependent_exception_class
                0x9d018f90        0x8
 .rodata._ZN10__cxxabiv1L31__gxx_dependent_exception_classE.__gxx_dependent_exception_class
                0x9d018f90        0x8 /Applications/microchip/xc32/v1.40/bin/bin/../../lib/gcc/pic32mx/4.8.3/../../../../pic32mx/lib/libsupc++.a(eh_call.o)

.text.__cxa_get_exception_ptr
                0x9d018f98        0x8
 .text.__cxa_get_exception_ptr
                0x9d018f98        0x8 /Applications/microchip/xc32/v1.40/bin/bin/../../lib/gcc/pic32mx/4.8.3/../../../../pic32mx/lib/libsupc++.a(eh_catch.o)
                0x9d018f98                __cxa_get_exception_ptr

.rodata._ZN10__cxxabiv1L29__gxx_primary_exception_classE.__gxx_primary_exception_class
                0x9d018fa0        0x8
 .rodata._ZN10__cxxabiv1L29__gxx_primary_exception_classE.__gxx_primary_exception_class
                0x9d018fa0        0x8 /Applications/microchip/xc32/v1.40/bin/bin/../../lib/gcc/pic32mx/4.8.3/../../../../pic32mx/lib/libsupc++.a(eh_catch.o)

.rodata._ZN10__cxxabiv1L31__gxx_dependent_exception_classE.__gxx_dependent_exception_class
                0x9d018fa8        0x8
 .rodata._ZN10__cxxabiv1L31__gxx_dependent_exception_classE.__gxx_dependent_exception_class
                0x9d018fa8        0x8 /Applications/microchip/xc32/v1.40/bin/bin/../../lib/gcc/pic32mx/4.8.3/../../../../pic32mx/lib/libsupc++.a(eh_catch.o)

.text.__cxa_get_globals_fast
                0x9d018fb0        0x8
 .text.__cxa_get_globals_fast
                0x9d018fb0        0x8 /Applications/microchip/xc32/v1.40/bin/bin/../../lib/gcc/pic32mx/4.8.3/../../../../pic32mx/lib/libsupc++.a(eh_globals.o)
                0x9d018fb0                __cxa_get_globals_fast

.text.__cxa_get_globals
                0x9d018fb8        0x8
 .text.__cxa_get_globals
                0x9d018fb8        0x8 /Applications/microchip/xc32/v1.40/bin/bin/../../lib/gcc/pic32mx/4.8.3/../../../../pic32mx/lib/libsupc++.a(eh_globals.o)
                0x9d018fb8                __cxa_get_globals

.rodata._ZN10__cxxabiv1L29__gxx_primary_exception_classE.__gxx_primary_exception_class
                0x9d018fc0        0x8
 .rodata._ZN10__cxxabiv1L29__gxx_primary_exception_classE.__gxx_primary_exception_class
                0x9d018fc0        0x8 /Applications/microchip/xc32/v1.40/bin/bin/../../lib/gcc/pic32mx/4.8.3/../../../../pic32mx/lib/libsupc++.a(eh_globals.o)

.rodata._ZN10__cxxabiv1L31__gxx_dependent_exception_classE.__gxx_dependent_exception_class
                0x9d018fc8        0x8
 .rodata._ZN10__cxxabiv1L31__gxx_dependent_exception_classE.__gxx_dependent_exception_class
                0x9d018fc8        0x8 /Applications/microchip/xc32/v1.40/bin/bin/../../lib/gcc/pic32mx/4.8.3/../../../../pic32mx/lib/libsupc++.a(eh_globals.o)

.rodata._ZN10__cxxabiv1L29__gxx_primary_exception_classE.__gxx_primary_exception_class
                0x9d018fd0        0x8
 .rodata._ZN10__cxxabiv1L29__gxx_primary_exception_classE.__gxx_primary_exception_class
                0x9d018fd0        0x8 /Applications/microchip/xc32/v1.40/bin/bin/../../lib/gcc/pic32mx/4.8.3/../../../../pic32mx/lib/libsupc++.a(eh_term_handler.o)

.rodata._ZN10__cxxabiv1L31__gxx_dependent_exception_classE.__gxx_dependent_exception_class
                0x9d018fd8        0x8
 .rodata._ZN10__cxxabiv1L31__gxx_dependent_exception_classE.__gxx_dependent_exception_class
                0x9d018fd8        0x8 /Applications/microchip/xc32/v1.40/bin/bin/../../lib/gcc/pic32mx/4.8.3/../../../../pic32mx/lib/libsupc++.a(eh_term_handler.o)

.text.getpagesize
                0x9d018fe0        0x8
 .text.getpagesize
                0x9d018fe0        0x8 /Applications/microchip/xc32/v1.40/bin/bin/../../lib/gcc/pic32mx/4.8.3/../../../../pic32mx/lib/libpic32.a(sbrk.o)
                0x9d018fe0                getpagesize

.text._on_reset
                0x9d018fe8        0x8
 .text._on_reset
                0x9d018fe8        0x8 /Applications/microchip/xc32/v1.40/bin/bin/../../lib/gcc/pic32mx/4.8.3/../../../../pic32mx/lib/libpic32.a(default-on-reset.o)
                0x9d018fe8                _on_reset

.text._on_bootstrap
                0x9d018ff0        0x8
 .text._on_bootstrap
                0x9d018ff0        0x8 /Applications/microchip/xc32/v1.40/bin/bin/../../lib/gcc/pic32mx/4.8.3/../../../../pic32mx/lib/libpic32.a(default-on-bootstrap.o)
                0x9d018ff0                _on_bootstrap

.text._exit     0x9d018ff8        0x8
 .text._exit    0x9d018ff8        0x8 /Applications/microchip/xc32/v1.40/bin/bin/../../lib/gcc/pic32mx/4.8.3/../../../../pic32mx/lib/libpic32.a(_exit.o)
                0x9d018ff8                _exit

.text.kill      0x9d019000        0x8
 .text.kill     0x9d019000        0x8 /Applications/microchip/xc32/v1.40/bin/bin/../../lib/gcc/pic32mx/4.8.3/../../../../pic32mx/lib/libpic32.a(kill.o)
                0x9d019000                kill

.text.getpid    0x9d019008        0x8
 .text.getpid   0x9d019008        0x8 /Applications/microchip/xc32/v1.40/bin/bin/../../lib/gcc/pic32mx/4.8.3/../../../../pic32mx/lib/libpic32.a(getpid.o)
                0x9d019008                getpid

.rodata._ZN10__cxxabiv112_GLOBAL__N_1L20nonvirtual_base_typeE.nonvirtual_base_type
                0x9d019010        0x4
 .rodata._ZN10__cxxabiv112_GLOBAL__N_1L20nonvirtual_base_typeE.nonvirtual_base_type
                0x9d019010        0x4 /Applications/microchip/xc32/v1.40/bin/bin/../../lib/gcc/pic32mx/4.8.3/../../../../pic32mx/lib/libsupc++.a(class_type_info.o)

.rodata         0x9d019014        0x4
 .rodata        0x9d019014        0x4 /Applications/microchip/xc32/v1.40/bin/bin/../../lib/gcc/pic32mx/4.8.3/../../../../pic32mx/lib/libxcpp.a(round.o)

.text           0x00000000        0x0
 .text          0x00000000        0x0 /Applications/microchip/xc32/v1.40/bin/bin/../../lib/gcc/pic32mx/4.8.3/crtn.o

.text           0x00000000        0x0
 .text          0x00000000        0x0 /Applications/microchip/xc32/v1.40/bin/bin/../../lib/gcc/pic32mx/4.8.3/../../../../pic32mx/lib/libm.a(sitofp.o)

.text           0x00000000        0x0
 .text          0x00000000        0x0 /Applications/microchip/xc32/v1.40/bin/bin/../../lib/gcc/pic32mx/4.8.3/../../../../pic32mx/lib/libm.a(fptoul.o)

.text           0x00000000        0x0
 .text          0x00000000        0x0 /Applications/microchip/xc32/v1.40/bin/bin/../../lib/gcc/pic32mx/4.8.3/../../../../pic32mx/lib/libm.a(fpcmp.o)

.text           0x00000000        0x0
 .text          0x00000000        0x0 /Applications/microchip/xc32/v1.40/bin/bin/../../lib/gcc/pic32mx/4.8.3/../../../../pic32mx/lib/libm.a(fp32subadd.o)

.text           0x00000000        0x0
 .text          0x00000000        0x0 /Applications/microchip/xc32/v1.40/bin/bin/../../lib/gcc/pic32mx/4.8.3/../../../../pic32mx/lib/libm.a(fp32mul.o)

.text           0x00000000        0x0
 .text          0x00000000        0x0 /Applications/microchip/xc32/v1.40/bin/bin/../../lib/gcc/pic32mx/4.8.3/../../../../pic32mx/lib/libm.a(fp32div.o)

.text           0x00000000        0x0
 .text          0x00000000        0x0 /Applications/microchip/xc32/v1.40/bin/bin/../../lib/gcc/pic32mx/4.8.3/../../../../pic32mx/lib/libpic32.a(defaultinterrupt.o)

.text           0x00000000        0x0
 .text          0x00000000        0x0 /Applications/microchip/xc32/v1.40/bin/bin/../../lib/gcc/pic32mx/4.8.3/../../../../pic32mx/lib/libpic32.a(default-general-exception-handler.o)

.text           0x00000000        0x0
 .text          0x00000000        0x0 /Applications/microchip/xc32/v1.40/bin/bin/../../lib/gcc/pic32mx/4.8.3/../../../../pic32mx/lib/libpic32.a(vector43.o)

.text           0x00000000        0x0
 .text          0x00000000        0x0 /Applications/microchip/xc32/v1.40/bin/bin/../../lib/gcc/pic32mx/4.8.3/../../../../pic32mx/lib/libpic32.a(vector42.o)

.text           0x00000000        0x0
 .text          0x00000000        0x0 /Applications/microchip/xc32/v1.40/bin/bin/../../lib/gcc/pic32mx/4.8.3/../../../../pic32mx/lib/libpic32.a(vector41.o)

.text           0x00000000        0x0
 .text          0x00000000        0x0 /Applications/microchip/xc32/v1.40/bin/bin/../../lib/gcc/pic32mx/4.8.3/../../../../pic32mx/lib/libpic32.a(vector40.o)

.text           0x00000000        0x0
 .text          0x00000000        0x0 /Applications/microchip/xc32/v1.40/bin/bin/../../lib/gcc/pic32mx/4.8.3/../../../../pic32mx/lib/libpic32.a(vector39.o)

.text           0x00000000        0x0
 .text          0x00000000        0x0 /Applications/microchip/xc32/v1.40/bin/bin/../../lib/gcc/pic32mx/4.8.3/../../../../pic32mx/lib/libpic32.a(vector38.o)

.text           0x00000000        0x0
 .text          0x00000000        0x0 /Applications/microchip/xc32/v1.40/bin/bin/../../lib/gcc/pic32mx/4.8.3/../../../../pic32mx/lib/libpic32.a(vector37.o)

.text           0x00000000        0x0
 .text          0x00000000        0x0 /Applications/microchip/xc32/v1.40/bin/bin/../../lib/gcc/pic32mx/4.8.3/../../../../pic32mx/lib/libpic32.a(vector36.o)

.text           0x00000000        0x0
 .text          0x00000000        0x0 /Applications/microchip/xc32/v1.40/bin/bin/../../lib/gcc/pic32mx/4.8.3/../../../../pic32mx/lib/libpic32.a(vector35.o)

.text           0x00000000        0x0
 .text          0x00000000        0x0 /Applications/microchip/xc32/v1.40/bin/bin/../../lib/gcc/pic32mx/4.8.3/../../../../pic32mx/lib/libpic32.a(vector34.o)

.text           0x00000000        0x0
 .text          0x00000000        0x0 /Applications/microchip/xc32/v1.40/bin/bin/../../lib/gcc/pic32mx/4.8.3/../../../../pic32mx/lib/libpic32.a(vector33.o)

.text           0x00000000        0x0
 .text          0x00000000        0x0 /Applications/microchip/xc32/v1.40/bin/bin/../../lib/gcc/pic32mx/4.8.3/../../../../pic32mx/lib/libpic32.a(vector31.o)

.text           0x00000000        0x0
 .text          0x00000000        0x0 /Applications/microchip/xc32/v1.40/bin/bin/../../lib/gcc/pic32mx/4.8.3/../../../../pic32mx/lib/libpic32.a(vector30.o)

.text           0x00000000        0x0
 .text          0x00000000        0x0 /Applications/microchip/xc32/v1.40/bin/bin/../../lib/gcc/pic32mx/4.8.3/../../../../pic32mx/lib/libpic32.a(vector29.o)

.text           0x00000000        0x0
 .text          0x00000000        0x0 /Applications/microchip/xc32/v1.40/bin/bin/../../lib/gcc/pic32mx/4.8.3/../../../../pic32mx/lib/libpic32.a(vector28.o)

.text           0x00000000        0x0
 .text          0x00000000        0x0 /Applications/microchip/xc32/v1.40/bin/bin/../../lib/gcc/pic32mx/4.8.3/../../../../pic32mx/lib/libpic32.a(vector27.o)

.text           0x00000000        0x0
 .text          0x00000000        0x0 /Applications/microchip/xc32/v1.40/bin/bin/../../lib/gcc/pic32mx/4.8.3/../../../../pic32mx/lib/libpic32.a(vector26.o)

.text           0x00000000        0x0
 .text          0x00000000        0x0 /Applications/microchip/xc32/v1.40/bin/bin/../../lib/gcc/pic32mx/4.8.3/../../../../pic32mx/lib/libpic32.a(vector25.o)

.text           0x00000000        0x0
 .text          0x00000000        0x0 /Applications/microchip/xc32/v1.40/bin/bin/../../lib/gcc/pic32mx/4.8.3/../../../../pic32mx/lib/libpic32.a(vector24.o)

.text           0x00000000        0x0
 .text          0x00000000        0x0 /Applications/microchip/xc32/v1.40/bin/bin/../../lib/gcc/pic32mx/4.8.3/../../../../pic32mx/lib/libpic32.a(vector23.o)

.text           0x00000000        0x0
 .text          0x00000000        0x0 /Applications/microchip/xc32/v1.40/bin/bin/../../lib/gcc/pic32mx/4.8.3/../../../../pic32mx/lib/libpic32.a(vector22.o)

.text           0x00000000        0x0
 .text          0x00000000        0x0 /Applications/microchip/xc32/v1.40/bin/bin/../../lib/gcc/pic32mx/4.8.3/../../../../pic32mx/lib/libpic32.a(vector21.o)

.text           0x00000000        0x0
 .text          0x00000000        0x0 /Applications/microchip/xc32/v1.40/bin/bin/../../lib/gcc/pic32mx/4.8.3/../../../../pic32mx/lib/libpic32.a(vector20.o)

.text           0x00000000        0x0
 .text          0x00000000        0x0 /Applications/microchip/xc32/v1.40/bin/bin/../../lib/gcc/pic32mx/4.8.3/../../../../pic32mx/lib/libpic32.a(vector19.o)

.text           0x00000000        0x0
 .text          0x00000000        0x0 /Applications/microchip/xc32/v1.40/bin/bin/../../lib/gcc/pic32mx/4.8.3/../../../../pic32mx/lib/libpic32.a(vector18.o)

.text           0x00000000        0x0
 .text          0x00000000        0x0 /Applications/microchip/xc32/v1.40/bin/bin/../../lib/gcc/pic32mx/4.8.3/../../../../pic32mx/lib/libpic32.a(vector17.o)

.text           0x00000000        0x0
 .text          0x00000000        0x0 /Applications/microchip/xc32/v1.40/bin/bin/../../lib/gcc/pic32mx/4.8.3/../../../../pic32mx/lib/libpic32.a(vector16.o)

.text           0x00000000        0x0
 .text          0x00000000        0x0 /Applications/microchip/xc32/v1.40/bin/bin/../../lib/gcc/pic32mx/4.8.3/../../../../pic32mx/lib/libpic32.a(vector15.o)

.text           0x00000000        0x0
 .text          0x00000000        0x0 /Applications/microchip/xc32/v1.40/bin/bin/../../lib/gcc/pic32mx/4.8.3/../../../../pic32mx/lib/libpic32.a(vector14.o)

.text           0x00000000        0x0
 .text          0x00000000        0x0 /Applications/microchip/xc32/v1.40/bin/bin/../../lib/gcc/pic32mx/4.8.3/../../../../pic32mx/lib/libpic32.a(vector13.o)

.text           0x00000000        0x0
 .text          0x00000000        0x0 /Applications/microchip/xc32/v1.40/bin/bin/../../lib/gcc/pic32mx/4.8.3/../../../../pic32mx/lib/libpic32.a(vector12.o)

.text           0x00000000        0x0
 .text          0x00000000        0x0 /Applications/microchip/xc32/v1.40/bin/bin/../../lib/gcc/pic32mx/4.8.3/../../../../pic32mx/lib/libpic32.a(vector11.o)

.text           0x00000000        0x0
 .text          0x00000000        0x0 /Applications/microchip/xc32/v1.40/bin/bin/../../lib/gcc/pic32mx/4.8.3/../../../../pic32mx/lib/libpic32.a(vector10.o)

.text           0x00000000        0x0
 .text          0x00000000        0x0 /Applications/microchip/xc32/v1.40/bin/bin/../../lib/gcc/pic32mx/4.8.3/../../../../pic32mx/lib/libpic32.a(vector9.o)

.text           0x00000000        0x0
 .text          0x00000000        0x0 /Applications/microchip/xc32/v1.40/bin/bin/../../lib/gcc/pic32mx/4.8.3/../../../../pic32mx/lib/libpic32.a(vector8.o)

.text           0x00000000        0x0
 .text          0x00000000        0x0 /Applications/microchip/xc32/v1.40/bin/bin/../../lib/gcc/pic32mx/4.8.3/../../../../pic32mx/lib/libpic32.a(vector7.o)

.text           0x00000000        0x0
 .text          0x00000000        0x0 /Applications/microchip/xc32/v1.40/bin/bin/../../lib/gcc/pic32mx/4.8.3/../../../../pic32mx/lib/libpic32.a(vector6.o)

.text           0x00000000        0x0
 .text          0x00000000        0x0 /Applications/microchip/xc32/v1.40/bin/bin/../../lib/gcc/pic32mx/4.8.3/../../../../pic32mx/lib/libpic32.a(vector5.o)

.text           0x00000000        0x0
 .text          0x00000000        0x0 /Applications/microchip/xc32/v1.40/bin/bin/../../lib/gcc/pic32mx/4.8.3/../../../../pic32mx/lib/libpic32.a(vector4.o)

.text           0x00000000        0x0
 .text          0x00000000        0x0 /Applications/microchip/xc32/v1.40/bin/bin/../../lib/gcc/pic32mx/4.8.3/../../../../pic32mx/lib/libpic32.a(vector3.o)

.text           0x00000000        0x0
 .text          0x00000000        0x0 /Applications/microchip/xc32/v1.40/bin/bin/../../lib/gcc/pic32mx/4.8.3/../../../../pic32mx/lib/libpic32.a(vector2.o)

.text           0x00000000        0x0
 .text          0x00000000        0x0 /Applications/microchip/xc32/v1.40/bin/bin/../../lib/gcc/pic32mx/4.8.3/../../../../pic32mx/lib/libpic32.a(vector1.o)

.text           0x00000000        0x0
 .text          0x00000000        0x0 /Applications/microchip/xc32/v1.40/bin/bin/../../lib/gcc/pic32mx/4.8.3/../../../../pic32mx/lib/libpic32.a(general-exception.o)

.text           0x00000000        0x0
 .text          0x00000000        0x0 /Applications/microchip/xc32/v1.40/bin/bin/../../lib/gcc/pic32mx/4.8.3/../../../../pic32mx/lib/libpic32.a(errno.o)

.text           0x00000000        0x0
 .text          0x00000000        0x0 /Applications/microchip/xc32/v1.40/bin/bin/../../lib/gcc/pic32mx/4.8.3/../../../../pic32mx/lib/libpic32.a(getpid.o)

.text           0x00000000        0x0
 .text          0x00000000        0x0 /Applications/microchip/xc32/v1.40/bin/bin/../../lib/gcc/pic32mx/4.8.3/../../../../pic32mx/lib/libpic32.a(kill.o)

.text           0x00000000        0x0
 .text          0x00000000        0x0 /Applications/microchip/xc32/v1.40/bin/bin/../../lib/gcc/pic32mx/4.8.3/../../../../pic32mx/lib/libpic32.a(_exit.o)

.text           0x00000000        0x0
 .text          0x00000000        0x0 /Applications/microchip/xc32/v1.40/bin/bin/../../lib/gcc/pic32mx/4.8.3/../../../../pic32mx/lib/libpic32.a(default-on-bootstrap.o)

.text           0x00000000        0x0
 .text          0x00000000        0x0 /Applications/microchip/xc32/v1.40/bin/bin/../../lib/gcc/pic32mx/4.8.3/../../../../pic32mx/lib/libpic32.a(default-on-reset.o)

.text           0x00000000        0x0
 .text          0x00000000        0x0 /Applications/microchip/xc32/v1.40/bin/bin/../../lib/gcc/pic32mx/4.8.3/../../../../pic32mx/lib/libpic32.a(default-bootstrap-exception-handler.o)

.text           0x00000000        0x0
 .text          0x00000000        0x0 /Applications/microchip/xc32/v1.40/bin/bin/../../lib/gcc/pic32mx/4.8.3/../../../../pic32mx/lib/libpic32.a(sbrk.o)

.text           0x00000000        0x0
 .text          0x00000000        0x0 /Applications/microchip/xc32/v1.40/bin/bin/../../lib/gcc/pic32mx/4.8.3/../../../../pic32mx/lib/./proc/32MX270F256D/processor.o

.text           0x00000000        0x0
 .text          0x00000000        0x0 /Applications/microchip/xc32/v1.40/bin/bin/../../lib/gcc/pic32mx/4.8.3/../../../../pic32mx/lib/./proc/32MX270F256D/default_isr_vectors.o

.text           0x00000000        0x0
 .text          0x00000000        0x0 /Applications/microchip/xc32/v1.40/bin/bin/../../lib/gcc/pic32mx/4.8.3/../../../../pic32mx/lib/libxcpp.a(strchr.o)

.text           0x00000000        0x0
 .text          0x00000000        0x0 /Applications/microchip/xc32/v1.40/bin/bin/../../lib/gcc/pic32mx/4.8.3/../../../../pic32mx/lib/libxcpp.a(xgetmem.o)

.text           0x00000000        0x0
 .text          0x00000000        0x0 /Applications/microchip/xc32/v1.40/bin/bin/../../lib/gcc/pic32mx/4.8.3/../../../../pic32mx/lib/libxcpp.a(xexit.o)

.text           0x00000000        0x0
 .text          0x00000000        0x0 /Applications/microchip/xc32/v1.40/bin/bin/../../lib/gcc/pic32mx/4.8.3/../../../../pic32mx/lib/libxcpp.a(xdint.o)

.text           0x00000000        0x0
 .text          0x00000000        0x0 /Applications/microchip/xc32/v1.40/bin/bin/../../lib/gcc/pic32mx/4.8.3/../../../../pic32mx/lib/libxcpp.a(strstr.o)

.text           0x00000000        0x0
 .text          0x00000000        0x0 /Applications/microchip/xc32/v1.40/bin/bin/../../lib/gcc/pic32mx/4.8.3/../../../../pic32mx/lib/libxcpp.a(strlen.o)

.text           0x00000000        0x0
 .text          0x00000000        0x0 /Applications/microchip/xc32/v1.40/bin/bin/../../lib/gcc/pic32mx/4.8.3/../../../../pic32mx/lib/libxcpp.a(strcmp.o)

.text           0x00000000        0x0
 .text          0x00000000        0x0 /Applications/microchip/xc32/v1.40/bin/bin/../../lib/gcc/pic32mx/4.8.3/../../../../pic32mx/lib/libxcpp.a(round.o)

.text           0x00000000        0x0
 .text          0x00000000        0x0 /Applications/microchip/xc32/v1.40/bin/bin/../../lib/gcc/pic32mx/4.8.3/../../../../pic32mx/lib/libxcpp.a(raise.o)

.text           0x00000000        0x0
 .text          0x00000000        0x0 /Applications/microchip/xc32/v1.40/bin/bin/../../lib/gcc/pic32mx/4.8.3/../../../../pic32mx/lib/libxcpp.a(memset.o)

.text           0x00000000        0x0
 .text          0x00000000        0x0 /Applications/microchip/xc32/v1.40/bin/bin/../../lib/gcc/pic32mx/4.8.3/../../../../pic32mx/lib/libxcpp.a(memcpy.o)

.text           0x00000000        0x0
 .text          0x00000000        0x0 /Applications/microchip/xc32/v1.40/bin/bin/../../lib/gcc/pic32mx/4.8.3/../../../../pic32mx/lib/libxcpp.a(malloc.o)

.text           0x00000000        0x0
 .text          0x00000000        0x0 /Applications/microchip/xc32/v1.40/bin/bin/../../lib/gcc/pic32mx/4.8.3/../../../../pic32mx/lib/libxcpp.a(free.o)

.text           0x00000000        0x0
 .text          0x00000000        0x0 /Applications/microchip/xc32/v1.40/bin/bin/../../lib/gcc/pic32mx/4.8.3/../../../../pic32mx/lib/libxcpp.a(exit.o)

.text           0x00000000        0x0
 .text          0x00000000        0x0 /Applications/microchip/xc32/v1.40/bin/bin/../../lib/gcc/pic32mx/4.8.3/../../../../pic32mx/lib/libxcpp.a(abs.o)

.text           0x00000000        0x0
 .text          0x00000000        0x0 /Applications/microchip/xc32/v1.40/bin/bin/../../lib/gcc/pic32mx/4.8.3/../../../../pic32mx/lib/libxcpp.a(abort.o)

.text           0x00000000        0x0
 .text          0x00000000        0x0 /Applications/microchip/xc32/v1.40/bin/bin/../../lib/gcc/pic32mx/4.8.3/../../../../pic32mx/lib/libsupc++.a(eh_term_handler.o)

.text           0x00000000        0x0
 .text          0x00000000        0x0 /Applications/microchip/xc32/v1.40/bin/bin/../../lib/gcc/pic32mx/4.8.3/../../../../pic32mx/lib/libsupc++.a(eh_globals.o)

.text           0x00000000        0x0
 .text          0x00000000        0x0 /Applications/microchip/xc32/v1.40/bin/bin/../../lib/gcc/pic32mx/4.8.3/../../../../pic32mx/lib/libsupc++.a(eh_exception.o)

.text           0x00000000        0x0
 .text          0x00000000        0x0 /Applications/microchip/xc32/v1.40/bin/bin/../../lib/gcc/pic32mx/4.8.3/../../../../pic32mx/lib/libsupc++.a(eh_catch.o)

.text           0x00000000        0x0
 .text          0x00000000        0x0 /Applications/microchip/xc32/v1.40/bin/bin/../../lib/gcc/pic32mx/4.8.3/../../../../pic32mx/lib/libsupc++.a(eh_call.o)

.text           0x00000000        0x0
 .text          0x00000000        0x0 /Applications/microchip/xc32/v1.40/bin/bin/../../lib/gcc/pic32mx/4.8.3/../../../../pic32mx/lib/libsupc++.a(eh_alloc.o)

.text           0x00000000        0x0
 .text          0x00000000        0x0 /Applications/microchip/xc32/v1.40/bin/bin/../../lib/gcc/pic32mx/4.8.3/../../../../pic32mx/lib/libsupc++.a(pure.o)

.text           0x00000000        0x0
 .text          0x00000000        0x0 /Applications/microchip/xc32/v1.40/bin/bin/../../lib/gcc/pic32mx/4.8.3/../../../../pic32mx/lib/libsupc++.a(tinfo.o)

.text           0x00000000        0x0
 .text          0x00000000        0x0 /Applications/microchip/xc32/v1.40/bin/bin/../../lib/gcc/pic32mx/4.8.3/../../../../pic32mx/lib/libsupc++.a(si_class_type_info.o)

.text           0x00000000        0x0
 .text          0x00000000        0x0 /Applications/microchip/xc32/v1.40/bin/bin/../../lib/gcc/pic32mx/4.8.3/../../../../pic32mx/lib/libsupc++.a(eh_unex_handler.o)

.text           0x00000000        0x0
 .text          0x00000000        0x0 /Applications/microchip/xc32/v1.40/bin/bin/../../lib/gcc/pic32mx/4.8.3/../../../../pic32mx/lib/libsupc++.a(eh_throw.o)

.text           0x00000000        0x0
 .text          0x00000000        0x0 /Applications/microchip/xc32/v1.40/bin/bin/../../lib/gcc/pic32mx/4.8.3/../../../../pic32mx/lib/libsupc++.a(eh_terminate.o)

.text           0x00000000        0x0
 .text          0x00000000        0x0 /Applications/microchip/xc32/v1.40/bin/bin/../../lib/gcc/pic32mx/4.8.3/../../../../pic32mx/lib/libsupc++.a(eh_personality.o)

.text           0x00000000        0x0
 .text          0x00000000        0x0 /Applications/microchip/xc32/v1.40/bin/bin/../../lib/gcc/pic32mx/4.8.3/../../../../pic32mx/lib/libsupc++.a(class_type_info.o)

.text           0x00000000        0x0
 .text          0x00000000        0x0 build/default/production/_ext/1360937237/Ap32mx270f256d.o

.text           0x00000000        0x0
 .text          0x00000000        0x0 build/default/production/_ext/1360937237/AConfigurationBits.o

.text           0x00000000        0x0
 .text          0x00000000        0x0 /Applications/microchip/xc32/v1.40/bin/bin/../../lib/gcc/pic32mx/4.8.3/crti.o

.text           0x00000000        0x0
 .text          0x00000000        0x0 /Applications/microchip/xc32/v1.40/bin/bin/../../lib/gcc/pic32mx/4.8.3/../../../../pic32mx/lib/./proc/32MX270F256D/cpprt0_mips32r2.o
